
laser_control.elf:     file format elf32-littlearm

Sections:
Idx Name          Size      VMA       LMA       File off  Algn
  0 .isr_vector   00000188  08000000  08000000  00010000  2**0
                  CONTENTS, ALLOC, LOAD, READONLY, DATA
  1 .text         000029cc  08000188  08000188  00010188  2**2
                  CONTENTS, ALLOC, LOAD, READONLY, CODE
  2 .rodata       00000030  08002b54  08002b54  00012b54  2**2
                  CONTENTS, ALLOC, LOAD, READONLY, DATA
  3 .ARM.extab    00000000  08002b84  08002b84  0002000c  2**0
                  CONTENTS
  4 .ARM          00000000  08002b84  08002b84  0002000c  2**0
                  CONTENTS
  5 .preinit_array 00000000  08002b84  08002b84  0002000c  2**0
                  CONTENTS, ALLOC, LOAD, DATA
  6 .init_array   00000004  08002b84  08002b84  00012b84  2**2
                  CONTENTS, ALLOC, LOAD, DATA
  7 .fini_array   00000004  08002b88  08002b88  00012b88  2**2
                  CONTENTS, ALLOC, LOAD, DATA
  8 .data         0000000c  20000000  08002b8c  00020000  2**2
                  CONTENTS, ALLOC, LOAD, DATA
  9 .bss          00000054  2000000c  08002b98  0002000c  2**2
                  ALLOC
 10 ._user_heap_stack 00000600  20000060  08002b98  00020060  2**0
                  ALLOC
 11 .ARM.attributes 00000030  00000000  00000000  0002000c  2**0
                  CONTENTS, READONLY
 12 .debug_info   000063a8  00000000  00000000  0002003c  2**0
                  CONTENTS, READONLY, DEBUGGING, OCTETS
 13 .debug_abbrev 000015ba  00000000  00000000  000263e4  2**0
                  CONTENTS, READONLY, DEBUGGING, OCTETS
 14 .debug_aranges 00000868  00000000  00000000  000279a0  2**3
                  CONTENTS, READONLY, DEBUGGING, OCTETS
 15 .debug_ranges 000007b0  00000000  00000000  00028208  2**3
                  CONTENTS, READONLY, DEBUGGING, OCTETS
 16 .debug_macro  000173f6  00000000  00000000  000289b8  2**0
                  CONTENTS, READONLY, DEBUGGING, OCTETS
 17 .debug_line   00005f47  00000000  00000000  0003fdae  2**0
                  CONTENTS, READONLY, DEBUGGING, OCTETS
 18 .debug_str    0007a404  00000000  00000000  00045cf5  2**0
                  CONTENTS, READONLY, DEBUGGING, OCTETS
 19 .comment      00000050  00000000  00000000  000c00f9  2**0
                  CONTENTS, READONLY
 20 .debug_frame  00002214  00000000  00000000  000c014c  2**2
                  CONTENTS, READONLY, DEBUGGING, OCTETS

Disassembly of section .text:

08000188 <__do_global_dtors_aux>:
 8000188:	b510      	push	{r4, lr}
 800018a:	4c05      	ldr	r4, [pc, #20]	; (80001a0 <__do_global_dtors_aux+0x18>)
 800018c:	7823      	ldrb	r3, [r4, #0]
 800018e:	b933      	cbnz	r3, 800019e <__do_global_dtors_aux+0x16>
 8000190:	4b04      	ldr	r3, [pc, #16]	; (80001a4 <__do_global_dtors_aux+0x1c>)
 8000192:	b113      	cbz	r3, 800019a <__do_global_dtors_aux+0x12>
 8000194:	4804      	ldr	r0, [pc, #16]	; (80001a8 <__do_global_dtors_aux+0x20>)
 8000196:	f3af 8000 	nop.w
 800019a:	2301      	movs	r3, #1
 800019c:	7023      	strb	r3, [r4, #0]
 800019e:	bd10      	pop	{r4, pc}
 80001a0:	2000000c 	.word	0x2000000c
 80001a4:	00000000 	.word	0x00000000
 80001a8:	08002b3c 	.word	0x08002b3c

080001ac <frame_dummy>:
 80001ac:	b508      	push	{r3, lr}
 80001ae:	4b03      	ldr	r3, [pc, #12]	; (80001bc <frame_dummy+0x10>)
 80001b0:	b11b      	cbz	r3, 80001ba <frame_dummy+0xe>
 80001b2:	4903      	ldr	r1, [pc, #12]	; (80001c0 <frame_dummy+0x14>)
 80001b4:	4803      	ldr	r0, [pc, #12]	; (80001c4 <frame_dummy+0x18>)
 80001b6:	f3af 8000 	nop.w
 80001ba:	bd08      	pop	{r3, pc}
 80001bc:	00000000 	.word	0x00000000
 80001c0:	20000010 	.word	0x20000010
 80001c4:	08002b3c 	.word	0x08002b3c

080001c8 <LL_TIM_EnableCounter>:
  * @rmtoll CR1          CEN           LL_TIM_EnableCounter
  * @param  TIMx Timer instance
  * @retval None
  */
__STATIC_INLINE void LL_TIM_EnableCounter(TIM_TypeDef *TIMx)
{
 80001c8:	b480      	push	{r7}
 80001ca:	b083      	sub	sp, #12
 80001cc:	af00      	add	r7, sp, #0
 80001ce:	6078      	str	r0, [r7, #4]
  SET_BIT(TIMx->CR1, TIM_CR1_CEN);
 80001d0:	687b      	ldr	r3, [r7, #4]
 80001d2:	681b      	ldr	r3, [r3, #0]
 80001d4:	f043 0201 	orr.w	r2, r3, #1
 80001d8:	687b      	ldr	r3, [r7, #4]
 80001da:	601a      	str	r2, [r3, #0]
}
 80001dc:	bf00      	nop
 80001de:	370c      	adds	r7, #12
 80001e0:	46bd      	mov	sp, r7
 80001e2:	f85d 7b04 	ldr.w	r7, [sp], #4
 80001e6:	4770      	bx	lr

080001e8 <LL_TIM_SetCounter>:
  * @param  TIMx Timer instance
  * @param  Counter Counter value (between Min_Data=0 and Max_Data=0xFFFF or 0xFFFFFFFF)
  * @retval None
  */
__STATIC_INLINE void LL_TIM_SetCounter(TIM_TypeDef *TIMx, uint32_t Counter)
{
 80001e8:	b480      	push	{r7}
 80001ea:	b083      	sub	sp, #12
 80001ec:	af00      	add	r7, sp, #0
 80001ee:	6078      	str	r0, [r7, #4]
 80001f0:	6039      	str	r1, [r7, #0]
  WRITE_REG(TIMx->CNT, Counter);
 80001f2:	687b      	ldr	r3, [r7, #4]
 80001f4:	683a      	ldr	r2, [r7, #0]
 80001f6:	625a      	str	r2, [r3, #36]	; 0x24
}
 80001f8:	bf00      	nop
 80001fa:	370c      	adds	r7, #12
 80001fc:	46bd      	mov	sp, r7
 80001fe:	f85d 7b04 	ldr.w	r7, [sp], #4
 8000202:	4770      	bx	lr

08000204 <LL_TIM_CC_EnableChannel>:
  *         @arg @ref LL_TIM_CHANNEL_CH6
  * @note   CH5 and CH6 channels are not available for all F3 devices
  * @retval None
  */
__STATIC_INLINE void LL_TIM_CC_EnableChannel(TIM_TypeDef *TIMx, uint32_t Channels)
{
 8000204:	b480      	push	{r7}
 8000206:	b083      	sub	sp, #12
 8000208:	af00      	add	r7, sp, #0
 800020a:	6078      	str	r0, [r7, #4]
 800020c:	6039      	str	r1, [r7, #0]
  SET_BIT(TIMx->CCER, Channels);
 800020e:	687b      	ldr	r3, [r7, #4]
 8000210:	6a1a      	ldr	r2, [r3, #32]
 8000212:	683b      	ldr	r3, [r7, #0]
 8000214:	431a      	orrs	r2, r3
 8000216:	687b      	ldr	r3, [r7, #4]
 8000218:	621a      	str	r2, [r3, #32]
}
 800021a:	bf00      	nop
 800021c:	370c      	adds	r7, #12
 800021e:	46bd      	mov	sp, r7
 8000220:	f85d 7b04 	ldr.w	r7, [sp], #4
 8000224:	4770      	bx	lr

08000226 <LL_TIM_EnableAllOutputs>:
  * @rmtoll BDTR         MOE           LL_TIM_EnableAllOutputs
  * @param  TIMx Timer instance
  * @retval None
  */
__STATIC_INLINE void LL_TIM_EnableAllOutputs(TIM_TypeDef *TIMx)
{
 8000226:	b480      	push	{r7}
 8000228:	b083      	sub	sp, #12
 800022a:	af00      	add	r7, sp, #0
 800022c:	6078      	str	r0, [r7, #4]
  SET_BIT(TIMx->BDTR, TIM_BDTR_MOE);
 800022e:	687b      	ldr	r3, [r7, #4]
 8000230:	6c5b      	ldr	r3, [r3, #68]	; 0x44
 8000232:	f443 4200 	orr.w	r2, r3, #32768	; 0x8000
 8000236:	687b      	ldr	r3, [r7, #4]
 8000238:	645a      	str	r2, [r3, #68]	; 0x44
}
 800023a:	bf00      	nop
 800023c:	370c      	adds	r7, #12
 800023e:	46bd      	mov	sp, r7
 8000240:	f85d 7b04 	ldr.w	r7, [sp], #4
 8000244:	4770      	bx	lr

08000246 <LL_TIM_EnableIT_CC1>:
  * @rmtoll DIER         CC1IE         LL_TIM_EnableIT_CC1
  * @param  TIMx Timer instance
  * @retval None
  */
__STATIC_INLINE void LL_TIM_EnableIT_CC1(TIM_TypeDef *TIMx)
{
 8000246:	b480      	push	{r7}
 8000248:	b083      	sub	sp, #12
 800024a:	af00      	add	r7, sp, #0
 800024c:	6078      	str	r0, [r7, #4]
  SET_BIT(TIMx->DIER, TIM_DIER_CC1IE);
 800024e:	687b      	ldr	r3, [r7, #4]
 8000250:	68db      	ldr	r3, [r3, #12]
 8000252:	f043 0202 	orr.w	r2, r3, #2
 8000256:	687b      	ldr	r3, [r7, #4]
 8000258:	60da      	str	r2, [r3, #12]
}
 800025a:	bf00      	nop
 800025c:	370c      	adds	r7, #12
 800025e:	46bd      	mov	sp, r7
 8000260:	f85d 7b04 	ldr.w	r7, [sp], #4
 8000264:	4770      	bx	lr

08000266 <LL_GPIO_SetOutputPin>:
  *         @arg @ref LL_GPIO_PIN_15
  *         @arg @ref LL_GPIO_PIN_ALL
  * @retval None
  */
__STATIC_INLINE void LL_GPIO_SetOutputPin(GPIO_TypeDef *GPIOx, uint32_t PinMask)
{
 8000266:	b480      	push	{r7}
 8000268:	b083      	sub	sp, #12
 800026a:	af00      	add	r7, sp, #0
 800026c:	6078      	str	r0, [r7, #4]
 800026e:	6039      	str	r1, [r7, #0]
  WRITE_REG(GPIOx->BSRR, PinMask);
 8000270:	687b      	ldr	r3, [r7, #4]
 8000272:	683a      	ldr	r2, [r7, #0]
 8000274:	619a      	str	r2, [r3, #24]
}
 8000276:	bf00      	nop
 8000278:	370c      	adds	r7, #12
 800027a:	46bd      	mov	sp, r7
 800027c:	f85d 7b04 	ldr.w	r7, [sp], #4
 8000280:	4770      	bx	lr

08000282 <LL_GPIO_ResetOutputPin>:
  *         @arg @ref LL_GPIO_PIN_15
  *         @arg @ref LL_GPIO_PIN_ALL
  * @retval None
  */
__STATIC_INLINE void LL_GPIO_ResetOutputPin(GPIO_TypeDef *GPIOx, uint32_t PinMask)
{
 8000282:	b480      	push	{r7}
 8000284:	b083      	sub	sp, #12
 8000286:	af00      	add	r7, sp, #0
 8000288:	6078      	str	r0, [r7, #4]
 800028a:	6039      	str	r1, [r7, #0]
  WRITE_REG(GPIOx->BRR, PinMask);
 800028c:	687b      	ldr	r3, [r7, #4]
 800028e:	683a      	ldr	r2, [r7, #0]
 8000290:	629a      	str	r2, [r3, #40]	; 0x28
}
 8000292:	bf00      	nop
 8000294:	370c      	adds	r7, #12
 8000296:	46bd      	mov	sp, r7
 8000298:	f85d 7b04 	ldr.w	r7, [sp], #4
 800029c:	4770      	bx	lr
	...

080002a0 <my_init>:
#include "main.h"
#include <laser.h>
#include <motors.h>


void my_init() {
 80002a0:	b580      	push	{r7, lr}
 80002a2:	af00      	add	r7, sp, #0
	set_dir_positive_x();
 80002a4:	f000 ffc4 	bl	8001230 <set_dir_positive_x>
	set_dir_positive_y();
 80002a8:	f000 ffd2 	bl	8001250 <set_dir_positive_y>

	DISABLE_MOTOR_X;
 80002ac:	2102      	movs	r1, #2
 80002ae:	4814      	ldr	r0, [pc, #80]	; (8000300 <my_init+0x60>)
 80002b0:	f7ff ffd9 	bl	8000266 <LL_GPIO_SetOutputPin>
	DISABLE_MOTOR_Y;
 80002b4:	2104      	movs	r1, #4
 80002b6:	4812      	ldr	r0, [pc, #72]	; (8000300 <my_init+0x60>)
 80002b8:	f7ff ffd5 	bl	8000266 <LL_GPIO_SetOutputPin>

	// MOTOR_X
	LL_TIM_CC_EnableChannel(TIM16, LL_TIM_CHANNEL_CH1);
 80002bc:	2101      	movs	r1, #1
 80002be:	4811      	ldr	r0, [pc, #68]	; (8000304 <my_init+0x64>)
 80002c0:	f7ff ffa0 	bl	8000204 <LL_TIM_CC_EnableChannel>
	LL_TIM_EnableAllOutputs(TIM16);
 80002c4:	480f      	ldr	r0, [pc, #60]	; (8000304 <my_init+0x64>)
 80002c6:	f7ff ffae 	bl	8000226 <LL_TIM_EnableAllOutputs>

	// MOTOR_Y
	LL_TIM_CC_EnableChannel(TIM17, LL_TIM_CHANNEL_CH1);
 80002ca:	2101      	movs	r1, #1
 80002cc:	480e      	ldr	r0, [pc, #56]	; (8000308 <my_init+0x68>)
 80002ce:	f7ff ff99 	bl	8000204 <LL_TIM_CC_EnableChannel>
	LL_TIM_EnableAllOutputs(TIM17);
 80002d2:	480d      	ldr	r0, [pc, #52]	; (8000308 <my_init+0x68>)
 80002d4:	f7ff ffa7 	bl	8000226 <LL_TIM_EnableAllOutputs>

	ENABLE_MOTOR_Y;
 80002d8:	2104      	movs	r1, #4
 80002da:	4809      	ldr	r0, [pc, #36]	; (8000300 <my_init+0x60>)
 80002dc:	f7ff ffd1 	bl	8000282 <LL_GPIO_ResetOutputPin>
	LL_TIM_SetCounter(TIM2, 0);
 80002e0:	2100      	movs	r1, #0
 80002e2:	f04f 4080 	mov.w	r0, #1073741824	; 0x40000000
 80002e6:	f7ff ff7f 	bl	80001e8 <LL_TIM_SetCounter>
	LL_TIM_EnableIT_CC1(TIM2);
 80002ea:	f04f 4080 	mov.w	r0, #1073741824	; 0x40000000
 80002ee:	f7ff ffaa 	bl	8000246 <LL_TIM_EnableIT_CC1>
	LL_TIM_EnableCounter(TIM2);
 80002f2:	f04f 4080 	mov.w	r0, #1073741824	; 0x40000000
 80002f6:	f7ff ff67 	bl	80001c8 <LL_TIM_EnableCounter>

	//test();
	//do_home();


}
 80002fa:	bf00      	nop
 80002fc:	bd80      	pop	{r7, pc}
 80002fe:	bf00      	nop
 8000300:	48000400 	.word	0x48000400
 8000304:	40014400 	.word	0x40014400
 8000308:	40014800 	.word	0x40014800

0800030c <my_loop>:

void my_loop() {
 800030c:	b480      	push	{r7}
 800030e:	af00      	add	r7, sp, #0

}
 8000310:	bf00      	nop
 8000312:	46bd      	mov	sp, r7
 8000314:	f85d 7b04 	ldr.w	r7, [sp], #4
 8000318:	4770      	bx	lr
	...

0800031c <__NVIC_SetPriorityGrouping>:
           In case of a conflict between priority grouping and available
           priority bits (__NVIC_PRIO_BITS), the smallest possible priority group is set.
  \param [in]      PriorityGroup  Priority grouping field.
 */
__STATIC_INLINE void __NVIC_SetPriorityGrouping(uint32_t PriorityGroup)
{
 800031c:	b480      	push	{r7}
 800031e:	b085      	sub	sp, #20
 8000320:	af00      	add	r7, sp, #0
 8000322:	6078      	str	r0, [r7, #4]
  uint32_t reg_value;
  uint32_t PriorityGroupTmp = (PriorityGroup & (uint32_t)0x07UL);             /* only values 0..7 are used          */
 8000324:	687b      	ldr	r3, [r7, #4]
 8000326:	f003 0307 	and.w	r3, r3, #7
 800032a:	60fb      	str	r3, [r7, #12]

  reg_value  =  SCB->AIRCR;                                                   /* read old register configuration    */
 800032c:	4b0c      	ldr	r3, [pc, #48]	; (8000360 <__NVIC_SetPriorityGrouping+0x44>)
 800032e:	68db      	ldr	r3, [r3, #12]
 8000330:	60bb      	str	r3, [r7, #8]
  reg_value &= ~((uint32_t)(SCB_AIRCR_VECTKEY_Msk | SCB_AIRCR_PRIGROUP_Msk)); /* clear bits to change               */
 8000332:	68ba      	ldr	r2, [r7, #8]
 8000334:	f64f 03ff 	movw	r3, #63743	; 0xf8ff
 8000338:	4013      	ands	r3, r2
 800033a:	60bb      	str	r3, [r7, #8]
  reg_value  =  (reg_value                                   |
                ((uint32_t)0x5FAUL << SCB_AIRCR_VECTKEY_Pos) |
                (PriorityGroupTmp << SCB_AIRCR_PRIGROUP_Pos)  );              /* Insert write key and priority group */
 800033c:	68fb      	ldr	r3, [r7, #12]
 800033e:	021a      	lsls	r2, r3, #8
                ((uint32_t)0x5FAUL << SCB_AIRCR_VECTKEY_Pos) |
 8000340:	68bb      	ldr	r3, [r7, #8]
 8000342:	4313      	orrs	r3, r2
  reg_value  =  (reg_value                                   |
 8000344:	f043 63bf 	orr.w	r3, r3, #100139008	; 0x5f80000
 8000348:	f443 3300 	orr.w	r3, r3, #131072	; 0x20000
 800034c:	60bb      	str	r3, [r7, #8]
  SCB->AIRCR =  reg_value;
 800034e:	4a04      	ldr	r2, [pc, #16]	; (8000360 <__NVIC_SetPriorityGrouping+0x44>)
 8000350:	68bb      	ldr	r3, [r7, #8]
 8000352:	60d3      	str	r3, [r2, #12]
}
 8000354:	bf00      	nop
 8000356:	3714      	adds	r7, #20
 8000358:	46bd      	mov	sp, r7
 800035a:	f85d 7b04 	ldr.w	r7, [sp], #4
 800035e:	4770      	bx	lr
 8000360:	e000ed00 	.word	0xe000ed00

08000364 <__NVIC_GetPriorityGrouping>:
  \brief   Get Priority Grouping
  \details Reads the priority grouping field from the NVIC Interrupt Controller.
  \return                Priority grouping field (SCB->AIRCR [10:8] PRIGROUP field).
 */
__STATIC_INLINE uint32_t __NVIC_GetPriorityGrouping(void)
{
 8000364:	b480      	push	{r7}
 8000366:	af00      	add	r7, sp, #0
  return ((uint32_t)((SCB->AIRCR & SCB_AIRCR_PRIGROUP_Msk) >> SCB_AIRCR_PRIGROUP_Pos));
 8000368:	4b04      	ldr	r3, [pc, #16]	; (800037c <__NVIC_GetPriorityGrouping+0x18>)
 800036a:	68db      	ldr	r3, [r3, #12]
 800036c:	0a1b      	lsrs	r3, r3, #8
 800036e:	f003 0307 	and.w	r3, r3, #7
}
 8000372:	4618      	mov	r0, r3
 8000374:	46bd      	mov	sp, r7
 8000376:	f85d 7b04 	ldr.w	r7, [sp], #4
 800037a:	4770      	bx	lr
 800037c:	e000ed00 	.word	0xe000ed00

08000380 <__NVIC_EnableIRQ>:
  \details Enables a device specific interrupt in the NVIC interrupt controller.
  \param [in]      IRQn  Device specific interrupt number.
  \note    IRQn must not be negative.
 */
__STATIC_INLINE void __NVIC_EnableIRQ(IRQn_Type IRQn)
{
 8000380:	b480      	push	{r7}
 8000382:	b083      	sub	sp, #12
 8000384:	af00      	add	r7, sp, #0
 8000386:	4603      	mov	r3, r0
 8000388:	71fb      	strb	r3, [r7, #7]
  if ((int32_t)(IRQn) >= 0)
 800038a:	f997 3007 	ldrsb.w	r3, [r7, #7]
 800038e:	2b00      	cmp	r3, #0
 8000390:	db0b      	blt.n	80003aa <__NVIC_EnableIRQ+0x2a>
  {
    NVIC->ISER[(((uint32_t)IRQn) >> 5UL)] = (uint32_t)(1UL << (((uint32_t)IRQn) & 0x1FUL));
 8000392:	79fb      	ldrb	r3, [r7, #7]
 8000394:	f003 021f 	and.w	r2, r3, #31
 8000398:	4907      	ldr	r1, [pc, #28]	; (80003b8 <__NVIC_EnableIRQ+0x38>)
 800039a:	f997 3007 	ldrsb.w	r3, [r7, #7]
 800039e:	095b      	lsrs	r3, r3, #5
 80003a0:	2001      	movs	r0, #1
 80003a2:	fa00 f202 	lsl.w	r2, r0, r2
 80003a6:	f841 2023 	str.w	r2, [r1, r3, lsl #2]
  }
}
 80003aa:	bf00      	nop
 80003ac:	370c      	adds	r7, #12
 80003ae:	46bd      	mov	sp, r7
 80003b0:	f85d 7b04 	ldr.w	r7, [sp], #4
 80003b4:	4770      	bx	lr
 80003b6:	bf00      	nop
 80003b8:	e000e100 	.word	0xe000e100

080003bc <__NVIC_SetPriority>:
  \param [in]      IRQn  Interrupt number.
  \param [in]  priority  Priority to set.
  \note    The priority cannot be set for every processor exception.
 */
__STATIC_INLINE void __NVIC_SetPriority(IRQn_Type IRQn, uint32_t priority)
{
 80003bc:	b480      	push	{r7}
 80003be:	b083      	sub	sp, #12
 80003c0:	af00      	add	r7, sp, #0
 80003c2:	4603      	mov	r3, r0
 80003c4:	6039      	str	r1, [r7, #0]
 80003c6:	71fb      	strb	r3, [r7, #7]
  if ((int32_t)(IRQn) >= 0)
 80003c8:	f997 3007 	ldrsb.w	r3, [r7, #7]
 80003cc:	2b00      	cmp	r3, #0
 80003ce:	db0a      	blt.n	80003e6 <__NVIC_SetPriority+0x2a>
  {
    NVIC->IP[((uint32_t)IRQn)]               = (uint8_t)((priority << (8U - __NVIC_PRIO_BITS)) & (uint32_t)0xFFUL);
 80003d0:	683b      	ldr	r3, [r7, #0]
 80003d2:	b2da      	uxtb	r2, r3
 80003d4:	490c      	ldr	r1, [pc, #48]	; (8000408 <__NVIC_SetPriority+0x4c>)
 80003d6:	f997 3007 	ldrsb.w	r3, [r7, #7]
 80003da:	0112      	lsls	r2, r2, #4
 80003dc:	b2d2      	uxtb	r2, r2
 80003de:	440b      	add	r3, r1
 80003e0:	f883 2300 	strb.w	r2, [r3, #768]	; 0x300
  }
  else
  {
    SCB->SHP[(((uint32_t)IRQn) & 0xFUL)-4UL] = (uint8_t)((priority << (8U - __NVIC_PRIO_BITS)) & (uint32_t)0xFFUL);
  }
}
 80003e4:	e00a      	b.n	80003fc <__NVIC_SetPriority+0x40>
    SCB->SHP[(((uint32_t)IRQn) & 0xFUL)-4UL] = (uint8_t)((priority << (8U - __NVIC_PRIO_BITS)) & (uint32_t)0xFFUL);
 80003e6:	683b      	ldr	r3, [r7, #0]
 80003e8:	b2da      	uxtb	r2, r3
 80003ea:	4908      	ldr	r1, [pc, #32]	; (800040c <__NVIC_SetPriority+0x50>)
 80003ec:	79fb      	ldrb	r3, [r7, #7]
 80003ee:	f003 030f 	and.w	r3, r3, #15
 80003f2:	3b04      	subs	r3, #4
 80003f4:	0112      	lsls	r2, r2, #4
 80003f6:	b2d2      	uxtb	r2, r2
 80003f8:	440b      	add	r3, r1
 80003fa:	761a      	strb	r2, [r3, #24]
}
 80003fc:	bf00      	nop
 80003fe:	370c      	adds	r7, #12
 8000400:	46bd      	mov	sp, r7
 8000402:	f85d 7b04 	ldr.w	r7, [sp], #4
 8000406:	4770      	bx	lr
 8000408:	e000e100 	.word	0xe000e100
 800040c:	e000ed00 	.word	0xe000ed00

08000410 <NVIC_EncodePriority>:
  \param [in]   PreemptPriority  Preemptive priority value (starting from 0).
  \param [in]       SubPriority  Subpriority value (starting from 0).
  \return                        Encoded priority. Value can be used in the function \ref NVIC_SetPriority().
 */
__STATIC_INLINE uint32_t NVIC_EncodePriority (uint32_t PriorityGroup, uint32_t PreemptPriority, uint32_t SubPriority)
{
 8000410:	b480      	push	{r7}
 8000412:	b089      	sub	sp, #36	; 0x24
 8000414:	af00      	add	r7, sp, #0
 8000416:	60f8      	str	r0, [r7, #12]
 8000418:	60b9      	str	r1, [r7, #8]
 800041a:	607a      	str	r2, [r7, #4]
  uint32_t PriorityGroupTmp = (PriorityGroup & (uint32_t)0x07UL);   /* only values 0..7 are used          */
 800041c:	68fb      	ldr	r3, [r7, #12]
 800041e:	f003 0307 	and.w	r3, r3, #7
 8000422:	61fb      	str	r3, [r7, #28]
  uint32_t PreemptPriorityBits;
  uint32_t SubPriorityBits;

  PreemptPriorityBits = ((7UL - PriorityGroupTmp) > (uint32_t)(__NVIC_PRIO_BITS)) ? (uint32_t)(__NVIC_PRIO_BITS) : (uint32_t)(7UL - PriorityGroupTmp);
 8000424:	69fb      	ldr	r3, [r7, #28]
 8000426:	f1c3 0307 	rsb	r3, r3, #7
 800042a:	2b04      	cmp	r3, #4
 800042c:	bf28      	it	cs
 800042e:	2304      	movcs	r3, #4
 8000430:	61bb      	str	r3, [r7, #24]
  SubPriorityBits     = ((PriorityGroupTmp + (uint32_t)(__NVIC_PRIO_BITS)) < (uint32_t)7UL) ? (uint32_t)0UL : (uint32_t)((PriorityGroupTmp - 7UL) + (uint32_t)(__NVIC_PRIO_BITS));
 8000432:	69fb      	ldr	r3, [r7, #28]
 8000434:	3304      	adds	r3, #4
 8000436:	2b06      	cmp	r3, #6
 8000438:	d902      	bls.n	8000440 <NVIC_EncodePriority+0x30>
 800043a:	69fb      	ldr	r3, [r7, #28]
 800043c:	3b03      	subs	r3, #3
 800043e:	e000      	b.n	8000442 <NVIC_EncodePriority+0x32>
 8000440:	2300      	movs	r3, #0
 8000442:	617b      	str	r3, [r7, #20]

  return (
           ((PreemptPriority & (uint32_t)((1UL << (PreemptPriorityBits)) - 1UL)) << SubPriorityBits) |
 8000444:	f04f 32ff 	mov.w	r2, #4294967295
 8000448:	69bb      	ldr	r3, [r7, #24]
 800044a:	fa02 f303 	lsl.w	r3, r2, r3
 800044e:	43da      	mvns	r2, r3
 8000450:	68bb      	ldr	r3, [r7, #8]
 8000452:	401a      	ands	r2, r3
 8000454:	697b      	ldr	r3, [r7, #20]
 8000456:	409a      	lsls	r2, r3
           ((SubPriority     & (uint32_t)((1UL << (SubPriorityBits    )) - 1UL)))
 8000458:	f04f 31ff 	mov.w	r1, #4294967295
 800045c:	697b      	ldr	r3, [r7, #20]
 800045e:	fa01 f303 	lsl.w	r3, r1, r3
 8000462:	43d9      	mvns	r1, r3
 8000464:	687b      	ldr	r3, [r7, #4]
 8000466:	400b      	ands	r3, r1
           ((PreemptPriority & (uint32_t)((1UL << (PreemptPriorityBits)) - 1UL)) << SubPriorityBits) |
 8000468:	4313      	orrs	r3, r2
         );
}
 800046a:	4618      	mov	r0, r3
 800046c:	3724      	adds	r7, #36	; 0x24
 800046e:	46bd      	mov	sp, r7
 8000470:	f85d 7b04 	ldr.w	r7, [sp], #4
 8000474:	4770      	bx	lr
	...

08000478 <LL_RCC_HSE_EnableBypass>:
  * @brief  Enable HSE external oscillator (HSE Bypass)
  * @rmtoll CR           HSEBYP        LL_RCC_HSE_EnableBypass
  * @retval None
  */
__STATIC_INLINE void LL_RCC_HSE_EnableBypass(void)
{
 8000478:	b480      	push	{r7}
 800047a:	af00      	add	r7, sp, #0
  SET_BIT(RCC->CR, RCC_CR_HSEBYP);
 800047c:	4b05      	ldr	r3, [pc, #20]	; (8000494 <LL_RCC_HSE_EnableBypass+0x1c>)
 800047e:	681b      	ldr	r3, [r3, #0]
 8000480:	4a04      	ldr	r2, [pc, #16]	; (8000494 <LL_RCC_HSE_EnableBypass+0x1c>)
 8000482:	f443 2380 	orr.w	r3, r3, #262144	; 0x40000
 8000486:	6013      	str	r3, [r2, #0]
}
 8000488:	bf00      	nop
 800048a:	46bd      	mov	sp, r7
 800048c:	f85d 7b04 	ldr.w	r7, [sp], #4
 8000490:	4770      	bx	lr
 8000492:	bf00      	nop
 8000494:	40021000 	.word	0x40021000

08000498 <LL_RCC_HSE_Enable>:
  * @brief  Enable HSE crystal oscillator (HSE ON)
  * @rmtoll CR           HSEON         LL_RCC_HSE_Enable
  * @retval None
  */
__STATIC_INLINE void LL_RCC_HSE_Enable(void)
{
 8000498:	b480      	push	{r7}
 800049a:	af00      	add	r7, sp, #0
  SET_BIT(RCC->CR, RCC_CR_HSEON);
 800049c:	4b05      	ldr	r3, [pc, #20]	; (80004b4 <LL_RCC_HSE_Enable+0x1c>)
 800049e:	681b      	ldr	r3, [r3, #0]
 80004a0:	4a04      	ldr	r2, [pc, #16]	; (80004b4 <LL_RCC_HSE_Enable+0x1c>)
 80004a2:	f443 3380 	orr.w	r3, r3, #65536	; 0x10000
 80004a6:	6013      	str	r3, [r2, #0]
}
 80004a8:	bf00      	nop
 80004aa:	46bd      	mov	sp, r7
 80004ac:	f85d 7b04 	ldr.w	r7, [sp], #4
 80004b0:	4770      	bx	lr
 80004b2:	bf00      	nop
 80004b4:	40021000 	.word	0x40021000

080004b8 <LL_RCC_HSE_IsReady>:
  * @brief  Check if HSE oscillator Ready
  * @rmtoll CR           HSERDY        LL_RCC_HSE_IsReady
  * @retval State of bit (1 or 0).
  */
__STATIC_INLINE uint32_t LL_RCC_HSE_IsReady(void)
{
 80004b8:	b480      	push	{r7}
 80004ba:	af00      	add	r7, sp, #0
  return (READ_BIT(RCC->CR, RCC_CR_HSERDY) == (RCC_CR_HSERDY));
 80004bc:	4b07      	ldr	r3, [pc, #28]	; (80004dc <LL_RCC_HSE_IsReady+0x24>)
 80004be:	681b      	ldr	r3, [r3, #0]
 80004c0:	f403 3300 	and.w	r3, r3, #131072	; 0x20000
 80004c4:	f5b3 3f00 	cmp.w	r3, #131072	; 0x20000
 80004c8:	bf0c      	ite	eq
 80004ca:	2301      	moveq	r3, #1
 80004cc:	2300      	movne	r3, #0
 80004ce:	b2db      	uxtb	r3, r3
}
 80004d0:	4618      	mov	r0, r3
 80004d2:	46bd      	mov	sp, r7
 80004d4:	f85d 7b04 	ldr.w	r7, [sp], #4
 80004d8:	4770      	bx	lr
 80004da:	bf00      	nop
 80004dc:	40021000 	.word	0x40021000

080004e0 <LL_RCC_SetSysClkSource>:
  *         @arg @ref LL_RCC_SYS_CLKSOURCE_HSE
  *         @arg @ref LL_RCC_SYS_CLKSOURCE_PLL
  * @retval None
  */
__STATIC_INLINE void LL_RCC_SetSysClkSource(uint32_t Source)
{
 80004e0:	b480      	push	{r7}
 80004e2:	b083      	sub	sp, #12
 80004e4:	af00      	add	r7, sp, #0
 80004e6:	6078      	str	r0, [r7, #4]
  MODIFY_REG(RCC->CFGR, RCC_CFGR_SW, Source);
 80004e8:	4b06      	ldr	r3, [pc, #24]	; (8000504 <LL_RCC_SetSysClkSource+0x24>)
 80004ea:	685b      	ldr	r3, [r3, #4]
 80004ec:	f023 0203 	bic.w	r2, r3, #3
 80004f0:	4904      	ldr	r1, [pc, #16]	; (8000504 <LL_RCC_SetSysClkSource+0x24>)
 80004f2:	687b      	ldr	r3, [r7, #4]
 80004f4:	4313      	orrs	r3, r2
 80004f6:	604b      	str	r3, [r1, #4]
}
 80004f8:	bf00      	nop
 80004fa:	370c      	adds	r7, #12
 80004fc:	46bd      	mov	sp, r7
 80004fe:	f85d 7b04 	ldr.w	r7, [sp], #4
 8000502:	4770      	bx	lr
 8000504:	40021000 	.word	0x40021000

08000508 <LL_RCC_GetSysClkSource>:
  *         @arg @ref LL_RCC_SYS_CLKSOURCE_STATUS_HSI
  *         @arg @ref LL_RCC_SYS_CLKSOURCE_STATUS_HSE
  *         @arg @ref LL_RCC_SYS_CLKSOURCE_STATUS_PLL
  */
__STATIC_INLINE uint32_t LL_RCC_GetSysClkSource(void)
{
 8000508:	b480      	push	{r7}
 800050a:	af00      	add	r7, sp, #0
  return (uint32_t)(READ_BIT(RCC->CFGR, RCC_CFGR_SWS));
 800050c:	4b04      	ldr	r3, [pc, #16]	; (8000520 <LL_RCC_GetSysClkSource+0x18>)
 800050e:	685b      	ldr	r3, [r3, #4]
 8000510:	f003 030c 	and.w	r3, r3, #12
}
 8000514:	4618      	mov	r0, r3
 8000516:	46bd      	mov	sp, r7
 8000518:	f85d 7b04 	ldr.w	r7, [sp], #4
 800051c:	4770      	bx	lr
 800051e:	bf00      	nop
 8000520:	40021000 	.word	0x40021000

08000524 <LL_RCC_SetAHBPrescaler>:
  *         @arg @ref LL_RCC_SYSCLK_DIV_256
  *         @arg @ref LL_RCC_SYSCLK_DIV_512
  * @retval None
  */
__STATIC_INLINE void LL_RCC_SetAHBPrescaler(uint32_t Prescaler)
{
 8000524:	b480      	push	{r7}
 8000526:	b083      	sub	sp, #12
 8000528:	af00      	add	r7, sp, #0
 800052a:	6078      	str	r0, [r7, #4]
  MODIFY_REG(RCC->CFGR, RCC_CFGR_HPRE, Prescaler);
 800052c:	4b06      	ldr	r3, [pc, #24]	; (8000548 <LL_RCC_SetAHBPrescaler+0x24>)
 800052e:	685b      	ldr	r3, [r3, #4]
 8000530:	f023 02f0 	bic.w	r2, r3, #240	; 0xf0
 8000534:	4904      	ldr	r1, [pc, #16]	; (8000548 <LL_RCC_SetAHBPrescaler+0x24>)
 8000536:	687b      	ldr	r3, [r7, #4]
 8000538:	4313      	orrs	r3, r2
 800053a:	604b      	str	r3, [r1, #4]
}
 800053c:	bf00      	nop
 800053e:	370c      	adds	r7, #12
 8000540:	46bd      	mov	sp, r7
 8000542:	f85d 7b04 	ldr.w	r7, [sp], #4
 8000546:	4770      	bx	lr
 8000548:	40021000 	.word	0x40021000

0800054c <LL_RCC_SetAPB1Prescaler>:
  *         @arg @ref LL_RCC_APB1_DIV_8
  *         @arg @ref LL_RCC_APB1_DIV_16
  * @retval None
  */
__STATIC_INLINE void LL_RCC_SetAPB1Prescaler(uint32_t Prescaler)
{
 800054c:	b480      	push	{r7}
 800054e:	b083      	sub	sp, #12
 8000550:	af00      	add	r7, sp, #0
 8000552:	6078      	str	r0, [r7, #4]
  MODIFY_REG(RCC->CFGR, RCC_CFGR_PPRE1, Prescaler);
 8000554:	4b06      	ldr	r3, [pc, #24]	; (8000570 <LL_RCC_SetAPB1Prescaler+0x24>)
 8000556:	685b      	ldr	r3, [r3, #4]
 8000558:	f423 62e0 	bic.w	r2, r3, #1792	; 0x700
 800055c:	4904      	ldr	r1, [pc, #16]	; (8000570 <LL_RCC_SetAPB1Prescaler+0x24>)
 800055e:	687b      	ldr	r3, [r7, #4]
 8000560:	4313      	orrs	r3, r2
 8000562:	604b      	str	r3, [r1, #4]
}
 8000564:	bf00      	nop
 8000566:	370c      	adds	r7, #12
 8000568:	46bd      	mov	sp, r7
 800056a:	f85d 7b04 	ldr.w	r7, [sp], #4
 800056e:	4770      	bx	lr
 8000570:	40021000 	.word	0x40021000

08000574 <LL_RCC_SetAPB2Prescaler>:
  *         @arg @ref LL_RCC_APB2_DIV_8
  *         @arg @ref LL_RCC_APB2_DIV_16
  * @retval None
  */
__STATIC_INLINE void LL_RCC_SetAPB2Prescaler(uint32_t Prescaler)
{
 8000574:	b480      	push	{r7}
 8000576:	b083      	sub	sp, #12
 8000578:	af00      	add	r7, sp, #0
 800057a:	6078      	str	r0, [r7, #4]
  MODIFY_REG(RCC->CFGR, RCC_CFGR_PPRE2, Prescaler);
 800057c:	4b06      	ldr	r3, [pc, #24]	; (8000598 <LL_RCC_SetAPB2Prescaler+0x24>)
 800057e:	685b      	ldr	r3, [r3, #4]
 8000580:	f423 5260 	bic.w	r2, r3, #14336	; 0x3800
 8000584:	4904      	ldr	r1, [pc, #16]	; (8000598 <LL_RCC_SetAPB2Prescaler+0x24>)
 8000586:	687b      	ldr	r3, [r7, #4]
 8000588:	4313      	orrs	r3, r2
 800058a:	604b      	str	r3, [r1, #4]
}
 800058c:	bf00      	nop
 800058e:	370c      	adds	r7, #12
 8000590:	46bd      	mov	sp, r7
 8000592:	f85d 7b04 	ldr.w	r7, [sp], #4
 8000596:	4770      	bx	lr
 8000598:	40021000 	.word	0x40021000

0800059c <LL_RCC_SetTIMClockSource>:
  *
  *         (*) value not defined in all devices.
  * @retval None
  */
__STATIC_INLINE void LL_RCC_SetTIMClockSource(uint32_t TIMxSource)
{
 800059c:	b480      	push	{r7}
 800059e:	b083      	sub	sp, #12
 80005a0:	af00      	add	r7, sp, #0
 80005a2:	6078      	str	r0, [r7, #4]
  MODIFY_REG(RCC->CFGR3, (RCC_CFGR3_TIM1SW << (TIMxSource >> 27U)), (TIMxSource & 0x03FFFFFFU));
 80005a4:	4b0a      	ldr	r3, [pc, #40]	; (80005d0 <LL_RCC_SetTIMClockSource+0x34>)
 80005a6:	6b1a      	ldr	r2, [r3, #48]	; 0x30
 80005a8:	687b      	ldr	r3, [r7, #4]
 80005aa:	0edb      	lsrs	r3, r3, #27
 80005ac:	f44f 7180 	mov.w	r1, #256	; 0x100
 80005b0:	fa01 f303 	lsl.w	r3, r1, r3
 80005b4:	43db      	mvns	r3, r3
 80005b6:	401a      	ands	r2, r3
 80005b8:	687b      	ldr	r3, [r7, #4]
 80005ba:	f023 437c 	bic.w	r3, r3, #4227858432	; 0xfc000000
 80005be:	4904      	ldr	r1, [pc, #16]	; (80005d0 <LL_RCC_SetTIMClockSource+0x34>)
 80005c0:	4313      	orrs	r3, r2
 80005c2:	630b      	str	r3, [r1, #48]	; 0x30
}
 80005c4:	bf00      	nop
 80005c6:	370c      	adds	r7, #12
 80005c8:	46bd      	mov	sp, r7
 80005ca:	f85d 7b04 	ldr.w	r7, [sp], #4
 80005ce:	4770      	bx	lr
 80005d0:	40021000 	.word	0x40021000

080005d4 <LL_RCC_PLL_Enable>:
  * @brief  Enable PLL
  * @rmtoll CR           PLLON         LL_RCC_PLL_Enable
  * @retval None
  */
__STATIC_INLINE void LL_RCC_PLL_Enable(void)
{
 80005d4:	b480      	push	{r7}
 80005d6:	af00      	add	r7, sp, #0
  SET_BIT(RCC->CR, RCC_CR_PLLON);
 80005d8:	4b05      	ldr	r3, [pc, #20]	; (80005f0 <LL_RCC_PLL_Enable+0x1c>)
 80005da:	681b      	ldr	r3, [r3, #0]
 80005dc:	4a04      	ldr	r2, [pc, #16]	; (80005f0 <LL_RCC_PLL_Enable+0x1c>)
 80005de:	f043 7380 	orr.w	r3, r3, #16777216	; 0x1000000
 80005e2:	6013      	str	r3, [r2, #0]
}
 80005e4:	bf00      	nop
 80005e6:	46bd      	mov	sp, r7
 80005e8:	f85d 7b04 	ldr.w	r7, [sp], #4
 80005ec:	4770      	bx	lr
 80005ee:	bf00      	nop
 80005f0:	40021000 	.word	0x40021000

080005f4 <LL_RCC_PLL_IsReady>:
  * @brief  Check if PLL Ready
  * @rmtoll CR           PLLRDY        LL_RCC_PLL_IsReady
  * @retval State of bit (1 or 0).
  */
__STATIC_INLINE uint32_t LL_RCC_PLL_IsReady(void)
{
 80005f4:	b480      	push	{r7}
 80005f6:	af00      	add	r7, sp, #0
  return (READ_BIT(RCC->CR, RCC_CR_PLLRDY) == (RCC_CR_PLLRDY));
 80005f8:	4b07      	ldr	r3, [pc, #28]	; (8000618 <LL_RCC_PLL_IsReady+0x24>)
 80005fa:	681b      	ldr	r3, [r3, #0]
 80005fc:	f003 7300 	and.w	r3, r3, #33554432	; 0x2000000
 8000600:	f1b3 7f00 	cmp.w	r3, #33554432	; 0x2000000
 8000604:	bf0c      	ite	eq
 8000606:	2301      	moveq	r3, #1
 8000608:	2300      	movne	r3, #0
 800060a:	b2db      	uxtb	r3, r3
}
 800060c:	4618      	mov	r0, r3
 800060e:	46bd      	mov	sp, r7
 8000610:	f85d 7b04 	ldr.w	r7, [sp], #4
 8000614:	4770      	bx	lr
 8000616:	bf00      	nop
 8000618:	40021000 	.word	0x40021000

0800061c <LL_RCC_PLL_ConfigDomain_SYS>:
  *         @arg @ref LL_RCC_PLL_MUL_15
  *         @arg @ref LL_RCC_PLL_MUL_16
  * @retval None
  */
__STATIC_INLINE void LL_RCC_PLL_ConfigDomain_SYS(uint32_t Source, uint32_t PLLMul)
{
 800061c:	b480      	push	{r7}
 800061e:	b083      	sub	sp, #12
 8000620:	af00      	add	r7, sp, #0
 8000622:	6078      	str	r0, [r7, #4]
 8000624:	6039      	str	r1, [r7, #0]
  MODIFY_REG(RCC->CFGR, RCC_CFGR_PLLSRC | RCC_CFGR_PLLMUL, (Source & RCC_CFGR_PLLSRC) | PLLMul);
 8000626:	4b0e      	ldr	r3, [pc, #56]	; (8000660 <LL_RCC_PLL_ConfigDomain_SYS+0x44>)
 8000628:	685b      	ldr	r3, [r3, #4]
 800062a:	f423 1274 	bic.w	r2, r3, #3997696	; 0x3d0000
 800062e:	687b      	ldr	r3, [r7, #4]
 8000630:	f403 3180 	and.w	r1, r3, #65536	; 0x10000
 8000634:	683b      	ldr	r3, [r7, #0]
 8000636:	430b      	orrs	r3, r1
 8000638:	4909      	ldr	r1, [pc, #36]	; (8000660 <LL_RCC_PLL_ConfigDomain_SYS+0x44>)
 800063a:	4313      	orrs	r3, r2
 800063c:	604b      	str	r3, [r1, #4]
  MODIFY_REG(RCC->CFGR2, RCC_CFGR2_PREDIV, (Source & RCC_CFGR2_PREDIV));
 800063e:	4b08      	ldr	r3, [pc, #32]	; (8000660 <LL_RCC_PLL_ConfigDomain_SYS+0x44>)
 8000640:	6adb      	ldr	r3, [r3, #44]	; 0x2c
 8000642:	f023 020f 	bic.w	r2, r3, #15
 8000646:	687b      	ldr	r3, [r7, #4]
 8000648:	f003 030f 	and.w	r3, r3, #15
 800064c:	4904      	ldr	r1, [pc, #16]	; (8000660 <LL_RCC_PLL_ConfigDomain_SYS+0x44>)
 800064e:	4313      	orrs	r3, r2
 8000650:	62cb      	str	r3, [r1, #44]	; 0x2c
}
 8000652:	bf00      	nop
 8000654:	370c      	adds	r7, #12
 8000656:	46bd      	mov	sp, r7
 8000658:	f85d 7b04 	ldr.w	r7, [sp], #4
 800065c:	4770      	bx	lr
 800065e:	bf00      	nop
 8000660:	40021000 	.word	0x40021000

08000664 <LL_AHB1_GRP1_EnableClock>:
  *
  *         (*) value not defined in all devices.
  * @retval None
*/
__STATIC_INLINE void LL_AHB1_GRP1_EnableClock(uint32_t Periphs)
{
 8000664:	b480      	push	{r7}
 8000666:	b085      	sub	sp, #20
 8000668:	af00      	add	r7, sp, #0
 800066a:	6078      	str	r0, [r7, #4]
  __IO uint32_t tmpreg;
  SET_BIT(RCC->AHBENR, Periphs);
 800066c:	4b08      	ldr	r3, [pc, #32]	; (8000690 <LL_AHB1_GRP1_EnableClock+0x2c>)
 800066e:	695a      	ldr	r2, [r3, #20]
 8000670:	4907      	ldr	r1, [pc, #28]	; (8000690 <LL_AHB1_GRP1_EnableClock+0x2c>)
 8000672:	687b      	ldr	r3, [r7, #4]
 8000674:	4313      	orrs	r3, r2
 8000676:	614b      	str	r3, [r1, #20]
  /* Delay after an RCC peripheral clock enabling */
  tmpreg = READ_BIT(RCC->AHBENR, Periphs);
 8000678:	4b05      	ldr	r3, [pc, #20]	; (8000690 <LL_AHB1_GRP1_EnableClock+0x2c>)
 800067a:	695a      	ldr	r2, [r3, #20]
 800067c:	687b      	ldr	r3, [r7, #4]
 800067e:	4013      	ands	r3, r2
 8000680:	60fb      	str	r3, [r7, #12]
  (void)tmpreg;
 8000682:	68fb      	ldr	r3, [r7, #12]
}
 8000684:	bf00      	nop
 8000686:	3714      	adds	r7, #20
 8000688:	46bd      	mov	sp, r7
 800068a:	f85d 7b04 	ldr.w	r7, [sp], #4
 800068e:	4770      	bx	lr
 8000690:	40021000 	.word	0x40021000

08000694 <LL_APB1_GRP1_EnableClock>:
  *
  *         (*) value not defined in all devices.
  * @retval None
*/
__STATIC_INLINE void LL_APB1_GRP1_EnableClock(uint32_t Periphs)
{
 8000694:	b480      	push	{r7}
 8000696:	b085      	sub	sp, #20
 8000698:	af00      	add	r7, sp, #0
 800069a:	6078      	str	r0, [r7, #4]
  __IO uint32_t tmpreg;
  SET_BIT(RCC->APB1ENR, Periphs);
 800069c:	4b08      	ldr	r3, [pc, #32]	; (80006c0 <LL_APB1_GRP1_EnableClock+0x2c>)
 800069e:	69da      	ldr	r2, [r3, #28]
 80006a0:	4907      	ldr	r1, [pc, #28]	; (80006c0 <LL_APB1_GRP1_EnableClock+0x2c>)
 80006a2:	687b      	ldr	r3, [r7, #4]
 80006a4:	4313      	orrs	r3, r2
 80006a6:	61cb      	str	r3, [r1, #28]
  /* Delay after an RCC peripheral clock enabling */
  tmpreg = READ_BIT(RCC->APB1ENR, Periphs);
 80006a8:	4b05      	ldr	r3, [pc, #20]	; (80006c0 <LL_APB1_GRP1_EnableClock+0x2c>)
 80006aa:	69da      	ldr	r2, [r3, #28]
 80006ac:	687b      	ldr	r3, [r7, #4]
 80006ae:	4013      	ands	r3, r2
 80006b0:	60fb      	str	r3, [r7, #12]
  (void)tmpreg;
 80006b2:	68fb      	ldr	r3, [r7, #12]
}
 80006b4:	bf00      	nop
 80006b6:	3714      	adds	r7, #20
 80006b8:	46bd      	mov	sp, r7
 80006ba:	f85d 7b04 	ldr.w	r7, [sp], #4
 80006be:	4770      	bx	lr
 80006c0:	40021000 	.word	0x40021000

080006c4 <LL_APB2_GRP1_EnableClock>:
  *
  *         (*) value not defined in all devices.
  * @retval None
*/
__STATIC_INLINE void LL_APB2_GRP1_EnableClock(uint32_t Periphs)
{
 80006c4:	b480      	push	{r7}
 80006c6:	b085      	sub	sp, #20
 80006c8:	af00      	add	r7, sp, #0
 80006ca:	6078      	str	r0, [r7, #4]
  __IO uint32_t tmpreg;
  SET_BIT(RCC->APB2ENR, Periphs);
 80006cc:	4b08      	ldr	r3, [pc, #32]	; (80006f0 <LL_APB2_GRP1_EnableClock+0x2c>)
 80006ce:	699a      	ldr	r2, [r3, #24]
 80006d0:	4907      	ldr	r1, [pc, #28]	; (80006f0 <LL_APB2_GRP1_EnableClock+0x2c>)
 80006d2:	687b      	ldr	r3, [r7, #4]
 80006d4:	4313      	orrs	r3, r2
 80006d6:	618b      	str	r3, [r1, #24]
  /* Delay after an RCC peripheral clock enabling */
  tmpreg = READ_BIT(RCC->APB2ENR, Periphs);
 80006d8:	4b05      	ldr	r3, [pc, #20]	; (80006f0 <LL_APB2_GRP1_EnableClock+0x2c>)
 80006da:	699a      	ldr	r2, [r3, #24]
 80006dc:	687b      	ldr	r3, [r7, #4]
 80006de:	4013      	ands	r3, r2
 80006e0:	60fb      	str	r3, [r7, #12]
  (void)tmpreg;
 80006e2:	68fb      	ldr	r3, [r7, #12]
}
 80006e4:	bf00      	nop
 80006e6:	3714      	adds	r7, #20
 80006e8:	46bd      	mov	sp, r7
 80006ea:	f85d 7b04 	ldr.w	r7, [sp], #4
 80006ee:	4770      	bx	lr
 80006f0:	40021000 	.word	0x40021000

080006f4 <LL_SYSCFG_SetEXTISource>:
  *         @arg @ref LL_SYSCFG_EXTI_LINE14
  *         @arg @ref LL_SYSCFG_EXTI_LINE15
  * @retval None
  */
__STATIC_INLINE void LL_SYSCFG_SetEXTISource(uint32_t Port, uint32_t Line)
{
 80006f4:	b480      	push	{r7}
 80006f6:	b085      	sub	sp, #20
 80006f8:	af00      	add	r7, sp, #0
 80006fa:	6078      	str	r0, [r7, #4]
 80006fc:	6039      	str	r1, [r7, #0]
  MODIFY_REG(SYSCFG->EXTICR[Line & 0xFF], (Line >> 16U), Port << POSITION_VAL((Line >> 16U)));
 80006fe:	4a13      	ldr	r2, [pc, #76]	; (800074c <LL_SYSCFG_SetEXTISource+0x58>)
 8000700:	683b      	ldr	r3, [r7, #0]
 8000702:	b2db      	uxtb	r3, r3
 8000704:	3302      	adds	r3, #2
 8000706:	f852 2023 	ldr.w	r2, [r2, r3, lsl #2]
 800070a:	683b      	ldr	r3, [r7, #0]
 800070c:	0c1b      	lsrs	r3, r3, #16
 800070e:	43db      	mvns	r3, r3
 8000710:	ea02 0103 	and.w	r1, r2, r3
 8000714:	683b      	ldr	r3, [r7, #0]
 8000716:	0c1b      	lsrs	r3, r3, #16
 8000718:	60fb      	str	r3, [r7, #12]
  uint32_t result;

#if ((defined (__ARM_ARCH_7M__      ) && (__ARM_ARCH_7M__      == 1)) || \
     (defined (__ARM_ARCH_7EM__     ) && (__ARM_ARCH_7EM__     == 1)) || \
     (defined (__ARM_ARCH_8M_MAIN__ ) && (__ARM_ARCH_8M_MAIN__ == 1))    )
   __ASM volatile ("rbit %0, %1" : "=r" (result) : "r" (value) );
 800071a:	68fb      	ldr	r3, [r7, #12]
 800071c:	fa93 f3a3 	rbit	r3, r3
 8000720:	60bb      	str	r3, [r7, #8]
    result |= value & 1U;
    s--;
  }
  result <<= s;                        /* shift when v's highest bits are zero */
#endif
  return result;
 8000722:	68bb      	ldr	r3, [r7, #8]
 8000724:	fab3 f383 	clz	r3, r3
 8000728:	b2db      	uxtb	r3, r3
 800072a:	461a      	mov	r2, r3
 800072c:	687b      	ldr	r3, [r7, #4]
 800072e:	fa03 f202 	lsl.w	r2, r3, r2
 8000732:	4806      	ldr	r0, [pc, #24]	; (800074c <LL_SYSCFG_SetEXTISource+0x58>)
 8000734:	683b      	ldr	r3, [r7, #0]
 8000736:	b2db      	uxtb	r3, r3
 8000738:	430a      	orrs	r2, r1
 800073a:	3302      	adds	r3, #2
 800073c:	f840 2023 	str.w	r2, [r0, r3, lsl #2]
}
 8000740:	bf00      	nop
 8000742:	3714      	adds	r7, #20
 8000744:	46bd      	mov	sp, r7
 8000746:	f85d 7b04 	ldr.w	r7, [sp], #4
 800074a:	4770      	bx	lr
 800074c:	40010000 	.word	0x40010000

08000750 <LL_FLASH_SetLatency>:
  *         @arg @ref LL_FLASH_LATENCY_1
  *         @arg @ref LL_FLASH_LATENCY_2
  * @retval None
  */
__STATIC_INLINE void LL_FLASH_SetLatency(uint32_t Latency)
{
 8000750:	b480      	push	{r7}
 8000752:	b083      	sub	sp, #12
 8000754:	af00      	add	r7, sp, #0
 8000756:	6078      	str	r0, [r7, #4]
  MODIFY_REG(FLASH->ACR, FLASH_ACR_LATENCY, Latency);
 8000758:	4b06      	ldr	r3, [pc, #24]	; (8000774 <LL_FLASH_SetLatency+0x24>)
 800075a:	681b      	ldr	r3, [r3, #0]
 800075c:	f023 0207 	bic.w	r2, r3, #7
 8000760:	4904      	ldr	r1, [pc, #16]	; (8000774 <LL_FLASH_SetLatency+0x24>)
 8000762:	687b      	ldr	r3, [r7, #4]
 8000764:	4313      	orrs	r3, r2
 8000766:	600b      	str	r3, [r1, #0]
}
 8000768:	bf00      	nop
 800076a:	370c      	adds	r7, #12
 800076c:	46bd      	mov	sp, r7
 800076e:	f85d 7b04 	ldr.w	r7, [sp], #4
 8000772:	4770      	bx	lr
 8000774:	40022000 	.word	0x40022000

08000778 <LL_FLASH_GetLatency>:
  *         @arg @ref LL_FLASH_LATENCY_0
  *         @arg @ref LL_FLASH_LATENCY_1
  *         @arg @ref LL_FLASH_LATENCY_2
  */
__STATIC_INLINE uint32_t LL_FLASH_GetLatency(void)
{
 8000778:	b480      	push	{r7}
 800077a:	af00      	add	r7, sp, #0
  return (uint32_t)(READ_BIT(FLASH->ACR, FLASH_ACR_LATENCY));
 800077c:	4b04      	ldr	r3, [pc, #16]	; (8000790 <LL_FLASH_GetLatency+0x18>)
 800077e:	681b      	ldr	r3, [r3, #0]
 8000780:	f003 0307 	and.w	r3, r3, #7
}
 8000784:	4618      	mov	r0, r3
 8000786:	46bd      	mov	sp, r7
 8000788:	f85d 7b04 	ldr.w	r7, [sp], #4
 800078c:	4770      	bx	lr
 800078e:	bf00      	nop
 8000790:	40022000 	.word	0x40022000

08000794 <LL_TIM_SetOnePulseMode>:
{
 8000794:	b480      	push	{r7}
 8000796:	b083      	sub	sp, #12
 8000798:	af00      	add	r7, sp, #0
 800079a:	6078      	str	r0, [r7, #4]
 800079c:	6039      	str	r1, [r7, #0]
  MODIFY_REG(TIMx->CR1, TIM_CR1_OPM, OnePulseMode);
 800079e:	687b      	ldr	r3, [r7, #4]
 80007a0:	681b      	ldr	r3, [r3, #0]
 80007a2:	f023 0208 	bic.w	r2, r3, #8
 80007a6:	683b      	ldr	r3, [r7, #0]
 80007a8:	431a      	orrs	r2, r3
 80007aa:	687b      	ldr	r3, [r7, #4]
 80007ac:	601a      	str	r2, [r3, #0]
}
 80007ae:	bf00      	nop
 80007b0:	370c      	adds	r7, #12
 80007b2:	46bd      	mov	sp, r7
 80007b4:	f85d 7b04 	ldr.w	r7, [sp], #4
 80007b8:	4770      	bx	lr

080007ba <LL_TIM_DisableARRPreload>:
{
 80007ba:	b480      	push	{r7}
 80007bc:	b083      	sub	sp, #12
 80007be:	af00      	add	r7, sp, #0
 80007c0:	6078      	str	r0, [r7, #4]
  CLEAR_BIT(TIMx->CR1, TIM_CR1_ARPE);
 80007c2:	687b      	ldr	r3, [r7, #4]
 80007c4:	681b      	ldr	r3, [r3, #0]
 80007c6:	f023 0280 	bic.w	r2, r3, #128	; 0x80
 80007ca:	687b      	ldr	r3, [r7, #4]
 80007cc:	601a      	str	r2, [r3, #0]
}
 80007ce:	bf00      	nop
 80007d0:	370c      	adds	r7, #12
 80007d2:	46bd      	mov	sp, r7
 80007d4:	f85d 7b04 	ldr.w	r7, [sp], #4
 80007d8:	4770      	bx	lr
	...

080007dc <LL_TIM_OC_DisableFast>:
{
 80007dc:	b480      	push	{r7}
 80007de:	b085      	sub	sp, #20
 80007e0:	af00      	add	r7, sp, #0
 80007e2:	6078      	str	r0, [r7, #4]
 80007e4:	6039      	str	r1, [r7, #0]
  uint8_t iChannel = TIM_GET_CHANNEL_INDEX(Channel);
 80007e6:	683b      	ldr	r3, [r7, #0]
 80007e8:	2b01      	cmp	r3, #1
 80007ea:	d028      	beq.n	800083e <LL_TIM_OC_DisableFast+0x62>
 80007ec:	683b      	ldr	r3, [r7, #0]
 80007ee:	2b04      	cmp	r3, #4
 80007f0:	d023      	beq.n	800083a <LL_TIM_OC_DisableFast+0x5e>
 80007f2:	683b      	ldr	r3, [r7, #0]
 80007f4:	2b10      	cmp	r3, #16
 80007f6:	d01e      	beq.n	8000836 <LL_TIM_OC_DisableFast+0x5a>
 80007f8:	683b      	ldr	r3, [r7, #0]
 80007fa:	2b40      	cmp	r3, #64	; 0x40
 80007fc:	d019      	beq.n	8000832 <LL_TIM_OC_DisableFast+0x56>
 80007fe:	683b      	ldr	r3, [r7, #0]
 8000800:	f5b3 7f80 	cmp.w	r3, #256	; 0x100
 8000804:	d013      	beq.n	800082e <LL_TIM_OC_DisableFast+0x52>
 8000806:	683b      	ldr	r3, [r7, #0]
 8000808:	f5b3 6f80 	cmp.w	r3, #1024	; 0x400
 800080c:	d00d      	beq.n	800082a <LL_TIM_OC_DisableFast+0x4e>
 800080e:	683b      	ldr	r3, [r7, #0]
 8000810:	f5b3 5f80 	cmp.w	r3, #4096	; 0x1000
 8000814:	d007      	beq.n	8000826 <LL_TIM_OC_DisableFast+0x4a>
 8000816:	683b      	ldr	r3, [r7, #0]
 8000818:	f5b3 3f80 	cmp.w	r3, #65536	; 0x10000
 800081c:	d101      	bne.n	8000822 <LL_TIM_OC_DisableFast+0x46>
 800081e:	2307      	movs	r3, #7
 8000820:	e00e      	b.n	8000840 <LL_TIM_OC_DisableFast+0x64>
 8000822:	2308      	movs	r3, #8
 8000824:	e00c      	b.n	8000840 <LL_TIM_OC_DisableFast+0x64>
 8000826:	2306      	movs	r3, #6
 8000828:	e00a      	b.n	8000840 <LL_TIM_OC_DisableFast+0x64>
 800082a:	2305      	movs	r3, #5
 800082c:	e008      	b.n	8000840 <LL_TIM_OC_DisableFast+0x64>
 800082e:	2304      	movs	r3, #4
 8000830:	e006      	b.n	8000840 <LL_TIM_OC_DisableFast+0x64>
 8000832:	2303      	movs	r3, #3
 8000834:	e004      	b.n	8000840 <LL_TIM_OC_DisableFast+0x64>
 8000836:	2302      	movs	r3, #2
 8000838:	e002      	b.n	8000840 <LL_TIM_OC_DisableFast+0x64>
 800083a:	2301      	movs	r3, #1
 800083c:	e000      	b.n	8000840 <LL_TIM_OC_DisableFast+0x64>
 800083e:	2300      	movs	r3, #0
 8000840:	73fb      	strb	r3, [r7, #15]
  __IO uint32_t *pReg = (__IO uint32_t *)((uint32_t)((uint32_t)(&TIMx->CCMR1) + OFFSET_TAB_CCMRx[iChannel]));
 8000842:	687b      	ldr	r3, [r7, #4]
 8000844:	3318      	adds	r3, #24
 8000846:	4619      	mov	r1, r3
 8000848:	7bfb      	ldrb	r3, [r7, #15]
 800084a:	4a0b      	ldr	r2, [pc, #44]	; (8000878 <LL_TIM_OC_DisableFast+0x9c>)
 800084c:	5cd3      	ldrb	r3, [r2, r3]
 800084e:	440b      	add	r3, r1
 8000850:	60bb      	str	r3, [r7, #8]
  CLEAR_BIT(*pReg, (TIM_CCMR1_OC1FE << SHIFT_TAB_OCxx[iChannel]));
 8000852:	68bb      	ldr	r3, [r7, #8]
 8000854:	681a      	ldr	r2, [r3, #0]
 8000856:	7bfb      	ldrb	r3, [r7, #15]
 8000858:	4908      	ldr	r1, [pc, #32]	; (800087c <LL_TIM_OC_DisableFast+0xa0>)
 800085a:	5ccb      	ldrb	r3, [r1, r3]
 800085c:	4619      	mov	r1, r3
 800085e:	2304      	movs	r3, #4
 8000860:	408b      	lsls	r3, r1
 8000862:	43db      	mvns	r3, r3
 8000864:	401a      	ands	r2, r3
 8000866:	68bb      	ldr	r3, [r7, #8]
 8000868:	601a      	str	r2, [r3, #0]
}
 800086a:	bf00      	nop
 800086c:	3714      	adds	r7, #20
 800086e:	46bd      	mov	sp, r7
 8000870:	f85d 7b04 	ldr.w	r7, [sp], #4
 8000874:	4770      	bx	lr
 8000876:	bf00      	nop
 8000878:	08002b54 	.word	0x08002b54
 800087c:	08002b60 	.word	0x08002b60

08000880 <LL_TIM_OC_EnablePreload>:
{
 8000880:	b480      	push	{r7}
 8000882:	b085      	sub	sp, #20
 8000884:	af00      	add	r7, sp, #0
 8000886:	6078      	str	r0, [r7, #4]
 8000888:	6039      	str	r1, [r7, #0]
  uint8_t iChannel = TIM_GET_CHANNEL_INDEX(Channel);
 800088a:	683b      	ldr	r3, [r7, #0]
 800088c:	2b01      	cmp	r3, #1
 800088e:	d028      	beq.n	80008e2 <LL_TIM_OC_EnablePreload+0x62>
 8000890:	683b      	ldr	r3, [r7, #0]
 8000892:	2b04      	cmp	r3, #4
 8000894:	d023      	beq.n	80008de <LL_TIM_OC_EnablePreload+0x5e>
 8000896:	683b      	ldr	r3, [r7, #0]
 8000898:	2b10      	cmp	r3, #16
 800089a:	d01e      	beq.n	80008da <LL_TIM_OC_EnablePreload+0x5a>
 800089c:	683b      	ldr	r3, [r7, #0]
 800089e:	2b40      	cmp	r3, #64	; 0x40
 80008a0:	d019      	beq.n	80008d6 <LL_TIM_OC_EnablePreload+0x56>
 80008a2:	683b      	ldr	r3, [r7, #0]
 80008a4:	f5b3 7f80 	cmp.w	r3, #256	; 0x100
 80008a8:	d013      	beq.n	80008d2 <LL_TIM_OC_EnablePreload+0x52>
 80008aa:	683b      	ldr	r3, [r7, #0]
 80008ac:	f5b3 6f80 	cmp.w	r3, #1024	; 0x400
 80008b0:	d00d      	beq.n	80008ce <LL_TIM_OC_EnablePreload+0x4e>
 80008b2:	683b      	ldr	r3, [r7, #0]
 80008b4:	f5b3 5f80 	cmp.w	r3, #4096	; 0x1000
 80008b8:	d007      	beq.n	80008ca <LL_TIM_OC_EnablePreload+0x4a>
 80008ba:	683b      	ldr	r3, [r7, #0]
 80008bc:	f5b3 3f80 	cmp.w	r3, #65536	; 0x10000
 80008c0:	d101      	bne.n	80008c6 <LL_TIM_OC_EnablePreload+0x46>
 80008c2:	2307      	movs	r3, #7
 80008c4:	e00e      	b.n	80008e4 <LL_TIM_OC_EnablePreload+0x64>
 80008c6:	2308      	movs	r3, #8
 80008c8:	e00c      	b.n	80008e4 <LL_TIM_OC_EnablePreload+0x64>
 80008ca:	2306      	movs	r3, #6
 80008cc:	e00a      	b.n	80008e4 <LL_TIM_OC_EnablePreload+0x64>
 80008ce:	2305      	movs	r3, #5
 80008d0:	e008      	b.n	80008e4 <LL_TIM_OC_EnablePreload+0x64>
 80008d2:	2304      	movs	r3, #4
 80008d4:	e006      	b.n	80008e4 <LL_TIM_OC_EnablePreload+0x64>
 80008d6:	2303      	movs	r3, #3
 80008d8:	e004      	b.n	80008e4 <LL_TIM_OC_EnablePreload+0x64>
 80008da:	2302      	movs	r3, #2
 80008dc:	e002      	b.n	80008e4 <LL_TIM_OC_EnablePreload+0x64>
 80008de:	2301      	movs	r3, #1
 80008e0:	e000      	b.n	80008e4 <LL_TIM_OC_EnablePreload+0x64>
 80008e2:	2300      	movs	r3, #0
 80008e4:	73fb      	strb	r3, [r7, #15]
  __IO uint32_t *pReg = (__IO uint32_t *)((uint32_t)((uint32_t)(&TIMx->CCMR1) + OFFSET_TAB_CCMRx[iChannel]));
 80008e6:	687b      	ldr	r3, [r7, #4]
 80008e8:	3318      	adds	r3, #24
 80008ea:	4619      	mov	r1, r3
 80008ec:	7bfb      	ldrb	r3, [r7, #15]
 80008ee:	4a0a      	ldr	r2, [pc, #40]	; (8000918 <LL_TIM_OC_EnablePreload+0x98>)
 80008f0:	5cd3      	ldrb	r3, [r2, r3]
 80008f2:	440b      	add	r3, r1
 80008f4:	60bb      	str	r3, [r7, #8]
  SET_BIT(*pReg, (TIM_CCMR1_OC1PE << SHIFT_TAB_OCxx[iChannel]));
 80008f6:	68bb      	ldr	r3, [r7, #8]
 80008f8:	681a      	ldr	r2, [r3, #0]
 80008fa:	7bfb      	ldrb	r3, [r7, #15]
 80008fc:	4907      	ldr	r1, [pc, #28]	; (800091c <LL_TIM_OC_EnablePreload+0x9c>)
 80008fe:	5ccb      	ldrb	r3, [r1, r3]
 8000900:	4619      	mov	r1, r3
 8000902:	2308      	movs	r3, #8
 8000904:	408b      	lsls	r3, r1
 8000906:	431a      	orrs	r2, r3
 8000908:	68bb      	ldr	r3, [r7, #8]
 800090a:	601a      	str	r2, [r3, #0]
}
 800090c:	bf00      	nop
 800090e:	3714      	adds	r7, #20
 8000910:	46bd      	mov	sp, r7
 8000912:	f85d 7b04 	ldr.w	r7, [sp], #4
 8000916:	4770      	bx	lr
 8000918:	08002b54 	.word	0x08002b54
 800091c:	08002b60 	.word	0x08002b60

08000920 <LL_TIM_SetClockSource>:
{
 8000920:	b480      	push	{r7}
 8000922:	b083      	sub	sp, #12
 8000924:	af00      	add	r7, sp, #0
 8000926:	6078      	str	r0, [r7, #4]
 8000928:	6039      	str	r1, [r7, #0]
  MODIFY_REG(TIMx->SMCR, TIM_SMCR_SMS | TIM_SMCR_ECE, ClockSource);
 800092a:	687b      	ldr	r3, [r7, #4]
 800092c:	689b      	ldr	r3, [r3, #8]
 800092e:	f423 33a0 	bic.w	r3, r3, #81920	; 0x14000
 8000932:	f023 0307 	bic.w	r3, r3, #7
 8000936:	683a      	ldr	r2, [r7, #0]
 8000938:	431a      	orrs	r2, r3
 800093a:	687b      	ldr	r3, [r7, #4]
 800093c:	609a      	str	r2, [r3, #8]
}
 800093e:	bf00      	nop
 8000940:	370c      	adds	r7, #12
 8000942:	46bd      	mov	sp, r7
 8000944:	f85d 7b04 	ldr.w	r7, [sp], #4
 8000948:	4770      	bx	lr

0800094a <LL_TIM_SetTriggerOutput>:
{
 800094a:	b480      	push	{r7}
 800094c:	b083      	sub	sp, #12
 800094e:	af00      	add	r7, sp, #0
 8000950:	6078      	str	r0, [r7, #4]
 8000952:	6039      	str	r1, [r7, #0]
  MODIFY_REG(TIMx->CR2, TIM_CR2_MMS, TimerSynchronization);
 8000954:	687b      	ldr	r3, [r7, #4]
 8000956:	685b      	ldr	r3, [r3, #4]
 8000958:	f023 0270 	bic.w	r2, r3, #112	; 0x70
 800095c:	683b      	ldr	r3, [r7, #0]
 800095e:	431a      	orrs	r2, r3
 8000960:	687b      	ldr	r3, [r7, #4]
 8000962:	605a      	str	r2, [r3, #4]
}
 8000964:	bf00      	nop
 8000966:	370c      	adds	r7, #12
 8000968:	46bd      	mov	sp, r7
 800096a:	f85d 7b04 	ldr.w	r7, [sp], #4
 800096e:	4770      	bx	lr

08000970 <LL_TIM_DisableMasterSlaveMode>:
{
 8000970:	b480      	push	{r7}
 8000972:	b083      	sub	sp, #12
 8000974:	af00      	add	r7, sp, #0
 8000976:	6078      	str	r0, [r7, #4]
  CLEAR_BIT(TIMx->SMCR, TIM_SMCR_MSM);
 8000978:	687b      	ldr	r3, [r7, #4]
 800097a:	689b      	ldr	r3, [r3, #8]
 800097c:	f023 0280 	bic.w	r2, r3, #128	; 0x80
 8000980:	687b      	ldr	r3, [r7, #4]
 8000982:	609a      	str	r2, [r3, #8]
}
 8000984:	bf00      	nop
 8000986:	370c      	adds	r7, #12
 8000988:	46bd      	mov	sp, r7
 800098a:	f85d 7b04 	ldr.w	r7, [sp], #4
 800098e:	4770      	bx	lr

08000990 <LL_USART_Enable>:
  * @rmtoll CR1          UE            LL_USART_Enable
  * @param  USARTx USART Instance
  * @retval None
  */
__STATIC_INLINE void LL_USART_Enable(USART_TypeDef *USARTx)
{
 8000990:	b480      	push	{r7}
 8000992:	b083      	sub	sp, #12
 8000994:	af00      	add	r7, sp, #0
 8000996:	6078      	str	r0, [r7, #4]
  SET_BIT(USARTx->CR1, USART_CR1_UE);
 8000998:	687b      	ldr	r3, [r7, #4]
 800099a:	681b      	ldr	r3, [r3, #0]
 800099c:	f043 0201 	orr.w	r2, r3, #1
 80009a0:	687b      	ldr	r3, [r7, #4]
 80009a2:	601a      	str	r2, [r3, #0]
}
 80009a4:	bf00      	nop
 80009a6:	370c      	adds	r7, #12
 80009a8:	46bd      	mov	sp, r7
 80009aa:	f85d 7b04 	ldr.w	r7, [sp], #4
 80009ae:	4770      	bx	lr

080009b0 <LL_USART_ConfigAsyncMode>:
  *         CR3          HDSEL         LL_USART_ConfigAsyncMode
  * @param  USARTx USART Instance
  * @retval None
  */
__STATIC_INLINE void LL_USART_ConfigAsyncMode(USART_TypeDef *USARTx)
{
 80009b0:	b480      	push	{r7}
 80009b2:	b083      	sub	sp, #12
 80009b4:	af00      	add	r7, sp, #0
 80009b6:	6078      	str	r0, [r7, #4]
  /* In Asynchronous mode, the following bits must be kept cleared:
  - LINEN, CLKEN bits in the USART_CR2 register,
  - SCEN, IREN and HDSEL bits in the USART_CR3 register.
  */
  CLEAR_BIT(USARTx->CR2, (USART_CR2_LINEN | USART_CR2_CLKEN));
 80009b8:	687b      	ldr	r3, [r7, #4]
 80009ba:	685b      	ldr	r3, [r3, #4]
 80009bc:	f423 4290 	bic.w	r2, r3, #18432	; 0x4800
 80009c0:	687b      	ldr	r3, [r7, #4]
 80009c2:	605a      	str	r2, [r3, #4]
  CLEAR_BIT(USARTx->CR3, (USART_CR3_SCEN | USART_CR3_IREN | USART_CR3_HDSEL));
 80009c4:	687b      	ldr	r3, [r7, #4]
 80009c6:	689b      	ldr	r3, [r3, #8]
 80009c8:	f023 022a 	bic.w	r2, r3, #42	; 0x2a
 80009cc:	687b      	ldr	r3, [r7, #4]
 80009ce:	609a      	str	r2, [r3, #8]
}
 80009d0:	bf00      	nop
 80009d2:	370c      	adds	r7, #12
 80009d4:	46bd      	mov	sp, r7
 80009d6:	f85d 7b04 	ldr.w	r7, [sp], #4
 80009da:	4770      	bx	lr

080009dc <LL_USART_DisableIT_CTS>:
  * @rmtoll CR3          CTSIE         LL_USART_DisableIT_CTS
  * @param  USARTx USART Instance
  * @retval None
  */
__STATIC_INLINE void LL_USART_DisableIT_CTS(USART_TypeDef *USARTx)
{
 80009dc:	b480      	push	{r7}
 80009de:	b089      	sub	sp, #36	; 0x24
 80009e0:	af00      	add	r7, sp, #0
 80009e2:	6078      	str	r0, [r7, #4]
  ATOMIC_CLEAR_BIT(USARTx->CR3, USART_CR3_CTSIE);
 80009e4:	687b      	ldr	r3, [r7, #4]
 80009e6:	3308      	adds	r3, #8
 80009e8:	60fb      	str	r3, [r7, #12]
 */
__STATIC_FORCEINLINE uint32_t __LDREXW(volatile uint32_t *addr)
{
    uint32_t result;

   __ASM volatile ("ldrex %0, %1" : "=r" (result) : "Q" (*addr) );
 80009ea:	68fb      	ldr	r3, [r7, #12]
 80009ec:	e853 3f00 	ldrex	r3, [r3]
 80009f0:	60bb      	str	r3, [r7, #8]
   return(result);
 80009f2:	68bb      	ldr	r3, [r7, #8]
 80009f4:	f423 6380 	bic.w	r3, r3, #1024	; 0x400
 80009f8:	61fb      	str	r3, [r7, #28]
 80009fa:	687b      	ldr	r3, [r7, #4]
 80009fc:	3308      	adds	r3, #8
 80009fe:	69fa      	ldr	r2, [r7, #28]
 8000a00:	61ba      	str	r2, [r7, #24]
 8000a02:	617b      	str	r3, [r7, #20]
 */
__STATIC_FORCEINLINE uint32_t __STREXW(uint32_t value, volatile uint32_t *addr)
{
   uint32_t result;

   __ASM volatile ("strex %0, %2, %1" : "=&r" (result), "=Q" (*addr) : "r" (value) );
 8000a04:	6979      	ldr	r1, [r7, #20]
 8000a06:	69ba      	ldr	r2, [r7, #24]
 8000a08:	e841 2300 	strex	r3, r2, [r1]
 8000a0c:	613b      	str	r3, [r7, #16]
   return(result);
 8000a0e:	693b      	ldr	r3, [r7, #16]
 8000a10:	2b00      	cmp	r3, #0
 8000a12:	d1e7      	bne.n	80009e4 <LL_USART_DisableIT_CTS+0x8>
}
 8000a14:	bf00      	nop
 8000a16:	bf00      	nop
 8000a18:	3724      	adds	r7, #36	; 0x24
 8000a1a:	46bd      	mov	sp, r7
 8000a1c:	f85d 7b04 	ldr.w	r7, [sp], #4
 8000a20:	4770      	bx	lr

08000a22 <LL_GPIO_SetPinMode>:
{
 8000a22:	b480      	push	{r7}
 8000a24:	b089      	sub	sp, #36	; 0x24
 8000a26:	af00      	add	r7, sp, #0
 8000a28:	60f8      	str	r0, [r7, #12]
 8000a2a:	60b9      	str	r1, [r7, #8]
 8000a2c:	607a      	str	r2, [r7, #4]
  MODIFY_REG(GPIOx->MODER, (GPIO_MODER_MODER0 << (POSITION_VAL(Pin) * 2U)), (Mode << (POSITION_VAL(Pin) * 2U)));
 8000a2e:	68fb      	ldr	r3, [r7, #12]
 8000a30:	681a      	ldr	r2, [r3, #0]
 8000a32:	68bb      	ldr	r3, [r7, #8]
 8000a34:	617b      	str	r3, [r7, #20]
   __ASM volatile ("rbit %0, %1" : "=r" (result) : "r" (value) );
 8000a36:	697b      	ldr	r3, [r7, #20]
 8000a38:	fa93 f3a3 	rbit	r3, r3
 8000a3c:	613b      	str	r3, [r7, #16]
  return result;
 8000a3e:	693b      	ldr	r3, [r7, #16]
 8000a40:	fab3 f383 	clz	r3, r3
 8000a44:	b2db      	uxtb	r3, r3
 8000a46:	005b      	lsls	r3, r3, #1
 8000a48:	2103      	movs	r1, #3
 8000a4a:	fa01 f303 	lsl.w	r3, r1, r3
 8000a4e:	43db      	mvns	r3, r3
 8000a50:	401a      	ands	r2, r3
 8000a52:	68bb      	ldr	r3, [r7, #8]
 8000a54:	61fb      	str	r3, [r7, #28]
   __ASM volatile ("rbit %0, %1" : "=r" (result) : "r" (value) );
 8000a56:	69fb      	ldr	r3, [r7, #28]
 8000a58:	fa93 f3a3 	rbit	r3, r3
 8000a5c:	61bb      	str	r3, [r7, #24]
  return result;
 8000a5e:	69bb      	ldr	r3, [r7, #24]
 8000a60:	fab3 f383 	clz	r3, r3
 8000a64:	b2db      	uxtb	r3, r3
 8000a66:	005b      	lsls	r3, r3, #1
 8000a68:	6879      	ldr	r1, [r7, #4]
 8000a6a:	fa01 f303 	lsl.w	r3, r1, r3
 8000a6e:	431a      	orrs	r2, r3
 8000a70:	68fb      	ldr	r3, [r7, #12]
 8000a72:	601a      	str	r2, [r3, #0]
}
 8000a74:	bf00      	nop
 8000a76:	3724      	adds	r7, #36	; 0x24
 8000a78:	46bd      	mov	sp, r7
 8000a7a:	f85d 7b04 	ldr.w	r7, [sp], #4
 8000a7e:	4770      	bx	lr

08000a80 <LL_GPIO_SetPinPull>:
{
 8000a80:	b480      	push	{r7}
 8000a82:	b089      	sub	sp, #36	; 0x24
 8000a84:	af00      	add	r7, sp, #0
 8000a86:	60f8      	str	r0, [r7, #12]
 8000a88:	60b9      	str	r1, [r7, #8]
 8000a8a:	607a      	str	r2, [r7, #4]
  MODIFY_REG(GPIOx->PUPDR, (GPIO_PUPDR_PUPDR0 << (POSITION_VAL(Pin) * 2U)), (Pull << (POSITION_VAL(Pin) * 2U)));
 8000a8c:	68fb      	ldr	r3, [r7, #12]
 8000a8e:	68da      	ldr	r2, [r3, #12]
 8000a90:	68bb      	ldr	r3, [r7, #8]
 8000a92:	617b      	str	r3, [r7, #20]
   __ASM volatile ("rbit %0, %1" : "=r" (result) : "r" (value) );
 8000a94:	697b      	ldr	r3, [r7, #20]
 8000a96:	fa93 f3a3 	rbit	r3, r3
 8000a9a:	613b      	str	r3, [r7, #16]
  return result;
 8000a9c:	693b      	ldr	r3, [r7, #16]
 8000a9e:	fab3 f383 	clz	r3, r3
 8000aa2:	b2db      	uxtb	r3, r3
 8000aa4:	005b      	lsls	r3, r3, #1
 8000aa6:	2103      	movs	r1, #3
 8000aa8:	fa01 f303 	lsl.w	r3, r1, r3
 8000aac:	43db      	mvns	r3, r3
 8000aae:	401a      	ands	r2, r3
 8000ab0:	68bb      	ldr	r3, [r7, #8]
 8000ab2:	61fb      	str	r3, [r7, #28]
   __ASM volatile ("rbit %0, %1" : "=r" (result) : "r" (value) );
 8000ab4:	69fb      	ldr	r3, [r7, #28]
 8000ab6:	fa93 f3a3 	rbit	r3, r3
 8000aba:	61bb      	str	r3, [r7, #24]
  return result;
 8000abc:	69bb      	ldr	r3, [r7, #24]
 8000abe:	fab3 f383 	clz	r3, r3
 8000ac2:	b2db      	uxtb	r3, r3
 8000ac4:	005b      	lsls	r3, r3, #1
 8000ac6:	6879      	ldr	r1, [r7, #4]
 8000ac8:	fa01 f303 	lsl.w	r3, r1, r3
 8000acc:	431a      	orrs	r2, r3
 8000ace:	68fb      	ldr	r3, [r7, #12]
 8000ad0:	60da      	str	r2, [r3, #12]
}
 8000ad2:	bf00      	nop
 8000ad4:	3724      	adds	r7, #36	; 0x24
 8000ad6:	46bd      	mov	sp, r7
 8000ad8:	f85d 7b04 	ldr.w	r7, [sp], #4
 8000adc:	4770      	bx	lr

08000ade <LL_GPIO_ResetOutputPin>:
{
 8000ade:	b480      	push	{r7}
 8000ae0:	b083      	sub	sp, #12
 8000ae2:	af00      	add	r7, sp, #0
 8000ae4:	6078      	str	r0, [r7, #4]
 8000ae6:	6039      	str	r1, [r7, #0]
  WRITE_REG(GPIOx->BRR, PinMask);
 8000ae8:	687b      	ldr	r3, [r7, #4]
 8000aea:	683a      	ldr	r2, [r7, #0]
 8000aec:	629a      	str	r2, [r3, #40]	; 0x28
}
 8000aee:	bf00      	nop
 8000af0:	370c      	adds	r7, #12
 8000af2:	46bd      	mov	sp, r7
 8000af4:	f85d 7b04 	ldr.w	r7, [sp], #4
 8000af8:	4770      	bx	lr

08000afa <main>:
/**
  * @brief  The application entry point.
  * @retval int
  */
int main(void)
{
 8000afa:	b580      	push	{r7, lr}
 8000afc:	af00      	add	r7, sp, #0
  /* USER CODE END 1 */

  /* MCU Configuration--------------------------------------------------------*/

  /* Reset of all peripherals, Initializes the Flash interface and the Systick. */
  LL_APB2_GRP1_EnableClock(LL_APB2_GRP1_PERIPH_SYSCFG);
 8000afe:	2001      	movs	r0, #1
 8000b00:	f7ff fde0 	bl	80006c4 <LL_APB2_GRP1_EnableClock>
  LL_APB1_GRP1_EnableClock(LL_APB1_GRP1_PERIPH_PWR);
 8000b04:	f04f 5080 	mov.w	r0, #268435456	; 0x10000000
 8000b08:	f7ff fdc4 	bl	8000694 <LL_APB1_GRP1_EnableClock>

  /* System interrupt init*/
  NVIC_SetPriorityGrouping(NVIC_PRIORITYGROUP_0);
 8000b0c:	2007      	movs	r0, #7
 8000b0e:	f7ff fc05 	bl	800031c <__NVIC_SetPriorityGrouping>
  /* USER CODE BEGIN Init */

  /* USER CODE END Init */

  /* Configure the system clock */
  SystemClock_Config();
 8000b12:	f000 f80f 	bl	8000b34 <SystemClock_Config>
  /* USER CODE BEGIN SysInit */

  /* USER CODE END SysInit */

  /* Initialize all configured peripherals */
  MX_GPIO_Init();
 8000b16:	f000 fa0d 	bl	8000f34 <MX_GPIO_Init>
  MX_USART2_UART_Init();
 8000b1a:	f000 f9b7 	bl	8000e8c <MX_USART2_UART_Init>
  MX_TIM17_Init();
 8000b1e:	f000 f923 	bl	8000d68 <MX_TIM17_Init>
  MX_TIM16_Init();
 8000b22:	f000 f891 	bl	8000c48 <MX_TIM16_Init>
  MX_TIM2_Init();
 8000b26:	f000 f84d 	bl	8000bc4 <MX_TIM2_Init>
  /* USER CODE BEGIN 2 */
  my_init();
 8000b2a:	f7ff fbb9 	bl	80002a0 <my_init>

  /* Infinite loop */
  /* USER CODE BEGIN WHILE */
  while (1)
  {
	  my_loop();
 8000b2e:	f7ff fbed 	bl	800030c <my_loop>
 8000b32:	e7fc      	b.n	8000b2e <main+0x34>

08000b34 <SystemClock_Config>:
/**
  * @brief System Clock Configuration
  * @retval None
  */
void SystemClock_Config(void)
{
 8000b34:	b580      	push	{r7, lr}
 8000b36:	af00      	add	r7, sp, #0
  LL_FLASH_SetLatency(LL_FLASH_LATENCY_2);
 8000b38:	2002      	movs	r0, #2
 8000b3a:	f7ff fe09 	bl	8000750 <LL_FLASH_SetLatency>
  while(LL_FLASH_GetLatency()!= LL_FLASH_LATENCY_2)
 8000b3e:	bf00      	nop
 8000b40:	f7ff fe1a 	bl	8000778 <LL_FLASH_GetLatency>
 8000b44:	4603      	mov	r3, r0
 8000b46:	2b02      	cmp	r3, #2
 8000b48:	d1fa      	bne.n	8000b40 <SystemClock_Config+0xc>
  {
  }
  LL_RCC_HSE_EnableBypass();
 8000b4a:	f7ff fc95 	bl	8000478 <LL_RCC_HSE_EnableBypass>
  LL_RCC_HSE_Enable();
 8000b4e:	f7ff fca3 	bl	8000498 <LL_RCC_HSE_Enable>

   /* Wait till HSE is ready */
  while(LL_RCC_HSE_IsReady() != 1)
 8000b52:	bf00      	nop
 8000b54:	f7ff fcb0 	bl	80004b8 <LL_RCC_HSE_IsReady>
 8000b58:	4603      	mov	r3, r0
 8000b5a:	2b01      	cmp	r3, #1
 8000b5c:	d1fa      	bne.n	8000b54 <SystemClock_Config+0x20>
  {

  }
  LL_RCC_PLL_ConfigDomain_SYS(LL_RCC_PLLSOURCE_HSE_DIV_1, LL_RCC_PLL_MUL_8);
 8000b5e:	f44f 11c0 	mov.w	r1, #1572864	; 0x180000
 8000b62:	f44f 3080 	mov.w	r0, #65536	; 0x10000
 8000b66:	f7ff fd59 	bl	800061c <LL_RCC_PLL_ConfigDomain_SYS>
  LL_RCC_PLL_Enable();
 8000b6a:	f7ff fd33 	bl	80005d4 <LL_RCC_PLL_Enable>

   /* Wait till PLL is ready */
  while(LL_RCC_PLL_IsReady() != 1)
 8000b6e:	bf00      	nop
 8000b70:	f7ff fd40 	bl	80005f4 <LL_RCC_PLL_IsReady>
 8000b74:	4603      	mov	r3, r0
 8000b76:	2b01      	cmp	r3, #1
 8000b78:	d1fa      	bne.n	8000b70 <SystemClock_Config+0x3c>
  {

  }
  LL_RCC_SetAHBPrescaler(LL_RCC_SYSCLK_DIV_1);
 8000b7a:	2000      	movs	r0, #0
 8000b7c:	f7ff fcd2 	bl	8000524 <LL_RCC_SetAHBPrescaler>
  LL_RCC_SetAPB1Prescaler(LL_RCC_APB1_DIV_2);
 8000b80:	f44f 6080 	mov.w	r0, #1024	; 0x400
 8000b84:	f7ff fce2 	bl	800054c <LL_RCC_SetAPB1Prescaler>
  LL_RCC_SetAPB2Prescaler(LL_RCC_APB2_DIV_1);
 8000b88:	2000      	movs	r0, #0
 8000b8a:	f7ff fcf3 	bl	8000574 <LL_RCC_SetAPB2Prescaler>
  LL_RCC_SetSysClkSource(LL_RCC_SYS_CLKSOURCE_PLL);
 8000b8e:	2002      	movs	r0, #2
 8000b90:	f7ff fca6 	bl	80004e0 <LL_RCC_SetSysClkSource>

   /* Wait till System clock is ready */
  while(LL_RCC_GetSysClkSource() != LL_RCC_SYS_CLKSOURCE_STATUS_PLL)
 8000b94:	bf00      	nop
 8000b96:	f7ff fcb7 	bl	8000508 <LL_RCC_GetSysClkSource>
 8000b9a:	4603      	mov	r3, r0
 8000b9c:	2b08      	cmp	r3, #8
 8000b9e:	d1fa      	bne.n	8000b96 <SystemClock_Config+0x62>
  {

  }
  LL_Init1msTick(64000000);
 8000ba0:	4807      	ldr	r0, [pc, #28]	; (8000bc0 <SystemClock_Config+0x8c>)
 8000ba2:	f001 ff81 	bl	8002aa8 <LL_Init1msTick>
  LL_SetSystemCoreClock(64000000);
 8000ba6:	4806      	ldr	r0, [pc, #24]	; (8000bc0 <SystemClock_Config+0x8c>)
 8000ba8:	f001 ff8c 	bl	8002ac4 <LL_SetSystemCoreClock>
  LL_RCC_SetTIMClockSource(LL_RCC_TIM17_CLKSOURCE_PCLK2);
 8000bac:	f04f 5020 	mov.w	r0, #671088640	; 0x28000000
 8000bb0:	f7ff fcf4 	bl	800059c <LL_RCC_SetTIMClockSource>
  LL_RCC_SetTIMClockSource(LL_RCC_TIM16_CLKSOURCE_PCLK2);
 8000bb4:	f04f 50c0 	mov.w	r0, #402653184	; 0x18000000
 8000bb8:	f7ff fcf0 	bl	800059c <LL_RCC_SetTIMClockSource>
}
 8000bbc:	bf00      	nop
 8000bbe:	bd80      	pop	{r7, pc}
 8000bc0:	03d09000 	.word	0x03d09000

08000bc4 <MX_TIM2_Init>:
  * @brief TIM2 Initialization Function
  * @param None
  * @retval None
  */
static void MX_TIM2_Init(void)
{
 8000bc4:	b580      	push	{r7, lr}
 8000bc6:	b086      	sub	sp, #24
 8000bc8:	af00      	add	r7, sp, #0

  /* USER CODE BEGIN TIM2_Init 0 */

  /* USER CODE END TIM2_Init 0 */

  LL_TIM_InitTypeDef TIM_InitStruct = {0};
 8000bca:	1d3b      	adds	r3, r7, #4
 8000bcc:	2200      	movs	r2, #0
 8000bce:	601a      	str	r2, [r3, #0]
 8000bd0:	605a      	str	r2, [r3, #4]
 8000bd2:	609a      	str	r2, [r3, #8]
 8000bd4:	60da      	str	r2, [r3, #12]
 8000bd6:	611a      	str	r2, [r3, #16]

  /* Peripheral clock enable */
  LL_APB1_GRP1_EnableClock(LL_APB1_GRP1_PERIPH_TIM2);
 8000bd8:	2001      	movs	r0, #1
 8000bda:	f7ff fd5b 	bl	8000694 <LL_APB1_GRP1_EnableClock>

  /* TIM2 interrupt Init */
  NVIC_SetPriority(TIM2_IRQn, NVIC_EncodePriority(NVIC_GetPriorityGrouping(),0, 0));
 8000bde:	f7ff fbc1 	bl	8000364 <__NVIC_GetPriorityGrouping>
 8000be2:	4603      	mov	r3, r0
 8000be4:	2200      	movs	r2, #0
 8000be6:	2100      	movs	r1, #0
 8000be8:	4618      	mov	r0, r3
 8000bea:	f7ff fc11 	bl	8000410 <NVIC_EncodePriority>
 8000bee:	4603      	mov	r3, r0
 8000bf0:	4619      	mov	r1, r3
 8000bf2:	201c      	movs	r0, #28
 8000bf4:	f7ff fbe2 	bl	80003bc <__NVIC_SetPriority>
  NVIC_EnableIRQ(TIM2_IRQn);
 8000bf8:	201c      	movs	r0, #28
 8000bfa:	f7ff fbc1 	bl	8000380 <__NVIC_EnableIRQ>

  /* USER CODE BEGIN TIM2_Init 1 */

  /* USER CODE END TIM2_Init 1 */
  TIM_InitStruct.Prescaler = 0;
 8000bfe:	2300      	movs	r3, #0
 8000c00:	80bb      	strh	r3, [r7, #4]
  TIM_InitStruct.CounterMode = LL_TIM_COUNTERMODE_UP;
 8000c02:	2300      	movs	r3, #0
 8000c04:	60bb      	str	r3, [r7, #8]
  TIM_InitStruct.Autoreload = 1999;
 8000c06:	f240 73cf 	movw	r3, #1999	; 0x7cf
 8000c0a:	60fb      	str	r3, [r7, #12]
  TIM_InitStruct.ClockDivision = LL_TIM_CLOCKDIVISION_DIV1;
 8000c0c:	2300      	movs	r3, #0
 8000c0e:	613b      	str	r3, [r7, #16]
  LL_TIM_Init(TIM2, &TIM_InitStruct);
 8000c10:	1d3b      	adds	r3, r7, #4
 8000c12:	4619      	mov	r1, r3
 8000c14:	f04f 4080 	mov.w	r0, #1073741824	; 0x40000000
 8000c18:	f001 fa80 	bl	800211c <LL_TIM_Init>
  LL_TIM_DisableARRPreload(TIM2);
 8000c1c:	f04f 4080 	mov.w	r0, #1073741824	; 0x40000000
 8000c20:	f7ff fdcb 	bl	80007ba <LL_TIM_DisableARRPreload>
  LL_TIM_SetClockSource(TIM2, LL_TIM_CLOCKSOURCE_INTERNAL);
 8000c24:	2100      	movs	r1, #0
 8000c26:	f04f 4080 	mov.w	r0, #1073741824	; 0x40000000
 8000c2a:	f7ff fe79 	bl	8000920 <LL_TIM_SetClockSource>
  LL_TIM_SetTriggerOutput(TIM2, LL_TIM_TRGO_CC1IF);
 8000c2e:	2130      	movs	r1, #48	; 0x30
 8000c30:	f04f 4080 	mov.w	r0, #1073741824	; 0x40000000
 8000c34:	f7ff fe89 	bl	800094a <LL_TIM_SetTriggerOutput>
  LL_TIM_DisableMasterSlaveMode(TIM2);
 8000c38:	f04f 4080 	mov.w	r0, #1073741824	; 0x40000000
 8000c3c:	f7ff fe98 	bl	8000970 <LL_TIM_DisableMasterSlaveMode>
  /* USER CODE BEGIN TIM2_Init 2 */

  /* USER CODE END TIM2_Init 2 */

}
 8000c40:	bf00      	nop
 8000c42:	3718      	adds	r7, #24
 8000c44:	46bd      	mov	sp, r7
 8000c46:	bd80      	pop	{r7, pc}

08000c48 <MX_TIM16_Init>:
  * @brief TIM16 Initialization Function
  * @param None
  * @retval None
  */
static void MX_TIM16_Init(void)
{
 8000c48:	b580      	push	{r7, lr}
 8000c4a:	b09e      	sub	sp, #120	; 0x78
 8000c4c:	af00      	add	r7, sp, #0

  /* USER CODE BEGIN TIM16_Init 0 */

  /* USER CODE END TIM16_Init 0 */

  LL_TIM_InitTypeDef TIM_InitStruct = {0};
 8000c4e:	f107 0364 	add.w	r3, r7, #100	; 0x64
 8000c52:	2200      	movs	r2, #0
 8000c54:	601a      	str	r2, [r3, #0]
 8000c56:	605a      	str	r2, [r3, #4]
 8000c58:	609a      	str	r2, [r3, #8]
 8000c5a:	60da      	str	r2, [r3, #12]
 8000c5c:	611a      	str	r2, [r3, #16]
  LL_TIM_OC_InitTypeDef TIM_OC_InitStruct = {0};
 8000c5e:	f107 0344 	add.w	r3, r7, #68	; 0x44
 8000c62:	2220      	movs	r2, #32
 8000c64:	2100      	movs	r1, #0
 8000c66:	4618      	mov	r0, r3
 8000c68:	f001 ff60 	bl	8002b2c <memset>
  LL_TIM_BDTR_InitTypeDef TIM_BDTRInitStruct = {0};
 8000c6c:	f107 031c 	add.w	r3, r7, #28
 8000c70:	2228      	movs	r2, #40	; 0x28
 8000c72:	2100      	movs	r1, #0
 8000c74:	4618      	mov	r0, r3
 8000c76:	f001 ff59 	bl	8002b2c <memset>

  LL_GPIO_InitTypeDef GPIO_InitStruct = {0};
 8000c7a:	1d3b      	adds	r3, r7, #4
 8000c7c:	2200      	movs	r2, #0
 8000c7e:	601a      	str	r2, [r3, #0]
 8000c80:	605a      	str	r2, [r3, #4]
 8000c82:	609a      	str	r2, [r3, #8]
 8000c84:	60da      	str	r2, [r3, #12]
 8000c86:	611a      	str	r2, [r3, #16]
 8000c88:	615a      	str	r2, [r3, #20]

  /* Peripheral clock enable */
  LL_APB2_GRP1_EnableClock(LL_APB2_GRP1_PERIPH_TIM16);
 8000c8a:	f44f 3000 	mov.w	r0, #131072	; 0x20000
 8000c8e:	f7ff fd19 	bl	80006c4 <LL_APB2_GRP1_EnableClock>

  /* USER CODE BEGIN TIM16_Init 1 */

  /* USER CODE END TIM16_Init 1 */
  TIM_InitStruct.Prescaler = 0;
 8000c92:	2300      	movs	r3, #0
 8000c94:	f8a7 3064 	strh.w	r3, [r7, #100]	; 0x64
  TIM_InitStruct.CounterMode = LL_TIM_COUNTERMODE_UP;
 8000c98:	2300      	movs	r3, #0
 8000c9a:	66bb      	str	r3, [r7, #104]	; 0x68
  TIM_InitStruct.Autoreload = 199;
 8000c9c:	23c7      	movs	r3, #199	; 0xc7
 8000c9e:	66fb      	str	r3, [r7, #108]	; 0x6c
  TIM_InitStruct.ClockDivision = LL_TIM_CLOCKDIVISION_DIV1;
 8000ca0:	2300      	movs	r3, #0
 8000ca2:	673b      	str	r3, [r7, #112]	; 0x70
  TIM_InitStruct.RepetitionCounter = 0;
 8000ca4:	2300      	movs	r3, #0
 8000ca6:	677b      	str	r3, [r7, #116]	; 0x74
  LL_TIM_Init(TIM16, &TIM_InitStruct);
 8000ca8:	f107 0364 	add.w	r3, r7, #100	; 0x64
 8000cac:	4619      	mov	r1, r3
 8000cae:	482d      	ldr	r0, [pc, #180]	; (8000d64 <MX_TIM16_Init+0x11c>)
 8000cb0:	f001 fa34 	bl	800211c <LL_TIM_Init>
  LL_TIM_DisableARRPreload(TIM16);
 8000cb4:	482b      	ldr	r0, [pc, #172]	; (8000d64 <MX_TIM16_Init+0x11c>)
 8000cb6:	f7ff fd80 	bl	80007ba <LL_TIM_DisableARRPreload>
  LL_TIM_OC_EnablePreload(TIM16, LL_TIM_CHANNEL_CH1);
 8000cba:	2101      	movs	r1, #1
 8000cbc:	4829      	ldr	r0, [pc, #164]	; (8000d64 <MX_TIM16_Init+0x11c>)
 8000cbe:	f7ff fddf 	bl	8000880 <LL_TIM_OC_EnablePreload>
  TIM_OC_InitStruct.OCMode = LL_TIM_OCMODE_PWM1;
 8000cc2:	2360      	movs	r3, #96	; 0x60
 8000cc4:	647b      	str	r3, [r7, #68]	; 0x44
  TIM_OC_InitStruct.OCState = LL_TIM_OCSTATE_DISABLE;
 8000cc6:	2300      	movs	r3, #0
 8000cc8:	64bb      	str	r3, [r7, #72]	; 0x48
  TIM_OC_InitStruct.OCNState = LL_TIM_OCSTATE_DISABLE;
 8000cca:	2300      	movs	r3, #0
 8000ccc:	64fb      	str	r3, [r7, #76]	; 0x4c
  TIM_OC_InitStruct.CompareValue = 149;
 8000cce:	2395      	movs	r3, #149	; 0x95
 8000cd0:	653b      	str	r3, [r7, #80]	; 0x50
  TIM_OC_InitStruct.OCPolarity = LL_TIM_OCPOLARITY_LOW;
 8000cd2:	2302      	movs	r3, #2
 8000cd4:	657b      	str	r3, [r7, #84]	; 0x54
  TIM_OC_InitStruct.OCNPolarity = LL_TIM_OCPOLARITY_HIGH;
 8000cd6:	2300      	movs	r3, #0
 8000cd8:	65bb      	str	r3, [r7, #88]	; 0x58
  TIM_OC_InitStruct.OCIdleState = LL_TIM_OCIDLESTATE_LOW;
 8000cda:	2300      	movs	r3, #0
 8000cdc:	65fb      	str	r3, [r7, #92]	; 0x5c
  TIM_OC_InitStruct.OCNIdleState = LL_TIM_OCIDLESTATE_LOW;
 8000cde:	2300      	movs	r3, #0
 8000ce0:	663b      	str	r3, [r7, #96]	; 0x60
  LL_TIM_OC_Init(TIM16, LL_TIM_CHANNEL_CH1, &TIM_OC_InitStruct);
 8000ce2:	f107 0344 	add.w	r3, r7, #68	; 0x44
 8000ce6:	461a      	mov	r2, r3
 8000ce8:	2101      	movs	r1, #1
 8000cea:	481e      	ldr	r0, [pc, #120]	; (8000d64 <MX_TIM16_Init+0x11c>)
 8000cec:	f001 fa7e 	bl	80021ec <LL_TIM_OC_Init>
  LL_TIM_OC_DisableFast(TIM16, LL_TIM_CHANNEL_CH1);
 8000cf0:	2101      	movs	r1, #1
 8000cf2:	481c      	ldr	r0, [pc, #112]	; (8000d64 <MX_TIM16_Init+0x11c>)
 8000cf4:	f7ff fd72 	bl	80007dc <LL_TIM_OC_DisableFast>
  LL_TIM_SetOnePulseMode(TIM16, LL_TIM_ONEPULSEMODE_SINGLE);
 8000cf8:	2108      	movs	r1, #8
 8000cfa:	481a      	ldr	r0, [pc, #104]	; (8000d64 <MX_TIM16_Init+0x11c>)
 8000cfc:	f7ff fd4a 	bl	8000794 <LL_TIM_SetOnePulseMode>
  TIM_BDTRInitStruct.OSSRState = LL_TIM_OSSR_DISABLE;
 8000d00:	2300      	movs	r3, #0
 8000d02:	61fb      	str	r3, [r7, #28]
  TIM_BDTRInitStruct.OSSIState = LL_TIM_OSSI_DISABLE;
 8000d04:	2300      	movs	r3, #0
 8000d06:	623b      	str	r3, [r7, #32]
  TIM_BDTRInitStruct.LockLevel = LL_TIM_LOCKLEVEL_OFF;
 8000d08:	2300      	movs	r3, #0
 8000d0a:	627b      	str	r3, [r7, #36]	; 0x24
  TIM_BDTRInitStruct.DeadTime = 0;
 8000d0c:	2300      	movs	r3, #0
 8000d0e:	f887 3028 	strb.w	r3, [r7, #40]	; 0x28
  TIM_BDTRInitStruct.BreakState = LL_TIM_BREAK_DISABLE;
 8000d12:	2300      	movs	r3, #0
 8000d14:	857b      	strh	r3, [r7, #42]	; 0x2a
  TIM_BDTRInitStruct.BreakPolarity = LL_TIM_BREAK_POLARITY_HIGH;
 8000d16:	f44f 5300 	mov.w	r3, #8192	; 0x2000
 8000d1a:	62fb      	str	r3, [r7, #44]	; 0x2c
  TIM_BDTRInitStruct.BreakFilter = LL_TIM_BREAK_FILTER_FDIV1;
 8000d1c:	2300      	movs	r3, #0
 8000d1e:	633b      	str	r3, [r7, #48]	; 0x30
  TIM_BDTRInitStruct.AutomaticOutput = LL_TIM_AUTOMATICOUTPUT_DISABLE;
 8000d20:	2300      	movs	r3, #0
 8000d22:	643b      	str	r3, [r7, #64]	; 0x40
  LL_TIM_BDTR_Init(TIM16, &TIM_BDTRInitStruct);
 8000d24:	f107 031c 	add.w	r3, r7, #28
 8000d28:	4619      	mov	r1, r3
 8000d2a:	480e      	ldr	r0, [pc, #56]	; (8000d64 <MX_TIM16_Init+0x11c>)
 8000d2c:	f001 fabe 	bl	80022ac <LL_TIM_BDTR_Init>
  /* USER CODE BEGIN TIM16_Init 2 */

  /* USER CODE END TIM16_Init 2 */
  LL_AHB1_GRP1_EnableClock(LL_AHB1_GRP1_PERIPH_GPIOA);
 8000d30:	f44f 3000 	mov.w	r0, #131072	; 0x20000
 8000d34:	f7ff fc96 	bl	8000664 <LL_AHB1_GRP1_EnableClock>
  /**TIM16 GPIO Configuration
  PA6   ------> TIM16_CH1
  */
  GPIO_InitStruct.Pin = X_STEP_Pin;
 8000d38:	2340      	movs	r3, #64	; 0x40
 8000d3a:	607b      	str	r3, [r7, #4]
  GPIO_InitStruct.Mode = LL_GPIO_MODE_ALTERNATE;
 8000d3c:	2302      	movs	r3, #2
 8000d3e:	60bb      	str	r3, [r7, #8]
  GPIO_InitStruct.Speed = LL_GPIO_SPEED_FREQ_LOW;
 8000d40:	2300      	movs	r3, #0
 8000d42:	60fb      	str	r3, [r7, #12]
  GPIO_InitStruct.OutputType = LL_GPIO_OUTPUT_PUSHPULL;
 8000d44:	2300      	movs	r3, #0
 8000d46:	613b      	str	r3, [r7, #16]
  GPIO_InitStruct.Pull = LL_GPIO_PULL_NO;
 8000d48:	2300      	movs	r3, #0
 8000d4a:	617b      	str	r3, [r7, #20]
  GPIO_InitStruct.Alternate = LL_GPIO_AF_1;
 8000d4c:	2301      	movs	r3, #1
 8000d4e:	61bb      	str	r3, [r7, #24]
  LL_GPIO_Init(X_STEP_GPIO_Port, &GPIO_InitStruct);
 8000d50:	1d3b      	adds	r3, r7, #4
 8000d52:	4619      	mov	r1, r3
 8000d54:	f04f 4090 	mov.w	r0, #1207959552	; 0x48000000
 8000d58:	f000 ff38 	bl	8001bcc <LL_GPIO_Init>

}
 8000d5c:	bf00      	nop
 8000d5e:	3778      	adds	r7, #120	; 0x78
 8000d60:	46bd      	mov	sp, r7
 8000d62:	bd80      	pop	{r7, pc}
 8000d64:	40014400 	.word	0x40014400

08000d68 <MX_TIM17_Init>:
  * @brief TIM17 Initialization Function
  * @param None
  * @retval None
  */
static void MX_TIM17_Init(void)
{
 8000d68:	b580      	push	{r7, lr}
 8000d6a:	b09e      	sub	sp, #120	; 0x78
 8000d6c:	af00      	add	r7, sp, #0

  /* USER CODE BEGIN TIM17_Init 0 */

  /* USER CODE END TIM17_Init 0 */

  LL_TIM_InitTypeDef TIM_InitStruct = {0};
 8000d6e:	f107 0364 	add.w	r3, r7, #100	; 0x64
 8000d72:	2200      	movs	r2, #0
 8000d74:	601a      	str	r2, [r3, #0]
 8000d76:	605a      	str	r2, [r3, #4]
 8000d78:	609a      	str	r2, [r3, #8]
 8000d7a:	60da      	str	r2, [r3, #12]
 8000d7c:	611a      	str	r2, [r3, #16]
  LL_TIM_OC_InitTypeDef TIM_OC_InitStruct = {0};
 8000d7e:	f107 0344 	add.w	r3, r7, #68	; 0x44
 8000d82:	2220      	movs	r2, #32
 8000d84:	2100      	movs	r1, #0
 8000d86:	4618      	mov	r0, r3
 8000d88:	f001 fed0 	bl	8002b2c <memset>
  LL_TIM_BDTR_InitTypeDef TIM_BDTRInitStruct = {0};
 8000d8c:	f107 031c 	add.w	r3, r7, #28
 8000d90:	2228      	movs	r2, #40	; 0x28
 8000d92:	2100      	movs	r1, #0
 8000d94:	4618      	mov	r0, r3
 8000d96:	f001 fec9 	bl	8002b2c <memset>

  LL_GPIO_InitTypeDef GPIO_InitStruct = {0};
 8000d9a:	1d3b      	adds	r3, r7, #4
 8000d9c:	2200      	movs	r2, #0
 8000d9e:	601a      	str	r2, [r3, #0]
 8000da0:	605a      	str	r2, [r3, #4]
 8000da2:	609a      	str	r2, [r3, #8]
 8000da4:	60da      	str	r2, [r3, #12]
 8000da6:	611a      	str	r2, [r3, #16]
 8000da8:	615a      	str	r2, [r3, #20]

  /* Peripheral clock enable */
  LL_APB2_GRP1_EnableClock(LL_APB2_GRP1_PERIPH_TIM17);
 8000daa:	f44f 2080 	mov.w	r0, #262144	; 0x40000
 8000dae:	f7ff fc89 	bl	80006c4 <LL_APB2_GRP1_EnableClock>

  /* USER CODE BEGIN TIM17_Init 1 */

  /* USER CODE END TIM17_Init 1 */
  TIM_InitStruct.Prescaler = 0;
 8000db2:	2300      	movs	r3, #0
 8000db4:	f8a7 3064 	strh.w	r3, [r7, #100]	; 0x64
  TIM_InitStruct.CounterMode = LL_TIM_COUNTERMODE_UP;
 8000db8:	2300      	movs	r3, #0
 8000dba:	66bb      	str	r3, [r7, #104]	; 0x68
  TIM_InitStruct.Autoreload = 199;
 8000dbc:	23c7      	movs	r3, #199	; 0xc7
 8000dbe:	66fb      	str	r3, [r7, #108]	; 0x6c
  TIM_InitStruct.ClockDivision = LL_TIM_CLOCKDIVISION_DIV1;
 8000dc0:	2300      	movs	r3, #0
 8000dc2:	673b      	str	r3, [r7, #112]	; 0x70
  TIM_InitStruct.RepetitionCounter = 0;
 8000dc4:	2300      	movs	r3, #0
 8000dc6:	677b      	str	r3, [r7, #116]	; 0x74
  LL_TIM_Init(TIM17, &TIM_InitStruct);
 8000dc8:	f107 0364 	add.w	r3, r7, #100	; 0x64
 8000dcc:	4619      	mov	r1, r3
 8000dce:	482d      	ldr	r0, [pc, #180]	; (8000e84 <MX_TIM17_Init+0x11c>)
 8000dd0:	f001 f9a4 	bl	800211c <LL_TIM_Init>
  LL_TIM_DisableARRPreload(TIM17);
 8000dd4:	482b      	ldr	r0, [pc, #172]	; (8000e84 <MX_TIM17_Init+0x11c>)
 8000dd6:	f7ff fcf0 	bl	80007ba <LL_TIM_DisableARRPreload>
  LL_TIM_OC_EnablePreload(TIM17, LL_TIM_CHANNEL_CH1);
 8000dda:	2101      	movs	r1, #1
 8000ddc:	4829      	ldr	r0, [pc, #164]	; (8000e84 <MX_TIM17_Init+0x11c>)
 8000dde:	f7ff fd4f 	bl	8000880 <LL_TIM_OC_EnablePreload>
  TIM_OC_InitStruct.OCMode = LL_TIM_OCMODE_PWM1;
 8000de2:	2360      	movs	r3, #96	; 0x60
 8000de4:	647b      	str	r3, [r7, #68]	; 0x44
  TIM_OC_InitStruct.OCState = LL_TIM_OCSTATE_DISABLE;
 8000de6:	2300      	movs	r3, #0
 8000de8:	64bb      	str	r3, [r7, #72]	; 0x48
  TIM_OC_InitStruct.OCNState = LL_TIM_OCSTATE_DISABLE;
 8000dea:	2300      	movs	r3, #0
 8000dec:	64fb      	str	r3, [r7, #76]	; 0x4c
  TIM_OC_InitStruct.CompareValue = 149;
 8000dee:	2395      	movs	r3, #149	; 0x95
 8000df0:	653b      	str	r3, [r7, #80]	; 0x50
  TIM_OC_InitStruct.OCPolarity = LL_TIM_OCPOLARITY_LOW;
 8000df2:	2302      	movs	r3, #2
 8000df4:	657b      	str	r3, [r7, #84]	; 0x54
  TIM_OC_InitStruct.OCNPolarity = LL_TIM_OCPOLARITY_HIGH;
 8000df6:	2300      	movs	r3, #0
 8000df8:	65bb      	str	r3, [r7, #88]	; 0x58
  TIM_OC_InitStruct.OCIdleState = LL_TIM_OCIDLESTATE_LOW;
 8000dfa:	2300      	movs	r3, #0
 8000dfc:	65fb      	str	r3, [r7, #92]	; 0x5c
  TIM_OC_InitStruct.OCNIdleState = LL_TIM_OCIDLESTATE_LOW;
 8000dfe:	2300      	movs	r3, #0
 8000e00:	663b      	str	r3, [r7, #96]	; 0x60
  LL_TIM_OC_Init(TIM17, LL_TIM_CHANNEL_CH1, &TIM_OC_InitStruct);
 8000e02:	f107 0344 	add.w	r3, r7, #68	; 0x44
 8000e06:	461a      	mov	r2, r3
 8000e08:	2101      	movs	r1, #1
 8000e0a:	481e      	ldr	r0, [pc, #120]	; (8000e84 <MX_TIM17_Init+0x11c>)
 8000e0c:	f001 f9ee 	bl	80021ec <LL_TIM_OC_Init>
  LL_TIM_OC_DisableFast(TIM17, LL_TIM_CHANNEL_CH1);
 8000e10:	2101      	movs	r1, #1
 8000e12:	481c      	ldr	r0, [pc, #112]	; (8000e84 <MX_TIM17_Init+0x11c>)
 8000e14:	f7ff fce2 	bl	80007dc <LL_TIM_OC_DisableFast>
  LL_TIM_SetOnePulseMode(TIM17, LL_TIM_ONEPULSEMODE_SINGLE);
 8000e18:	2108      	movs	r1, #8
 8000e1a:	481a      	ldr	r0, [pc, #104]	; (8000e84 <MX_TIM17_Init+0x11c>)
 8000e1c:	f7ff fcba 	bl	8000794 <LL_TIM_SetOnePulseMode>
  TIM_BDTRInitStruct.OSSRState = LL_TIM_OSSR_DISABLE;
 8000e20:	2300      	movs	r3, #0
 8000e22:	61fb      	str	r3, [r7, #28]
  TIM_BDTRInitStruct.OSSIState = LL_TIM_OSSI_DISABLE;
 8000e24:	2300      	movs	r3, #0
 8000e26:	623b      	str	r3, [r7, #32]
  TIM_BDTRInitStruct.LockLevel = LL_TIM_LOCKLEVEL_OFF;
 8000e28:	2300      	movs	r3, #0
 8000e2a:	627b      	str	r3, [r7, #36]	; 0x24
  TIM_BDTRInitStruct.DeadTime = 0;
 8000e2c:	2300      	movs	r3, #0
 8000e2e:	f887 3028 	strb.w	r3, [r7, #40]	; 0x28
  TIM_BDTRInitStruct.BreakState = LL_TIM_BREAK_DISABLE;
 8000e32:	2300      	movs	r3, #0
 8000e34:	857b      	strh	r3, [r7, #42]	; 0x2a
  TIM_BDTRInitStruct.BreakPolarity = LL_TIM_BREAK_POLARITY_HIGH;
 8000e36:	f44f 5300 	mov.w	r3, #8192	; 0x2000
 8000e3a:	62fb      	str	r3, [r7, #44]	; 0x2c
  TIM_BDTRInitStruct.BreakFilter = LL_TIM_BREAK_FILTER_FDIV1;
 8000e3c:	2300      	movs	r3, #0
 8000e3e:	633b      	str	r3, [r7, #48]	; 0x30
  TIM_BDTRInitStruct.AutomaticOutput = LL_TIM_AUTOMATICOUTPUT_DISABLE;
 8000e40:	2300      	movs	r3, #0
 8000e42:	643b      	str	r3, [r7, #64]	; 0x40
  LL_TIM_BDTR_Init(TIM17, &TIM_BDTRInitStruct);
 8000e44:	f107 031c 	add.w	r3, r7, #28
 8000e48:	4619      	mov	r1, r3
 8000e4a:	480e      	ldr	r0, [pc, #56]	; (8000e84 <MX_TIM17_Init+0x11c>)
 8000e4c:	f001 fa2e 	bl	80022ac <LL_TIM_BDTR_Init>
  /* USER CODE BEGIN TIM17_Init 2 */

  /* USER CODE END TIM17_Init 2 */
  LL_AHB1_GRP1_EnableClock(LL_AHB1_GRP1_PERIPH_GPIOB);
 8000e50:	f44f 2080 	mov.w	r0, #262144	; 0x40000
 8000e54:	f7ff fc06 	bl	8000664 <LL_AHB1_GRP1_EnableClock>
  /**TIM17 GPIO Configuration
  PB5   ------> TIM17_CH1
  */
  GPIO_InitStruct.Pin = Z_STEP_Pin;
 8000e58:	2320      	movs	r3, #32
 8000e5a:	607b      	str	r3, [r7, #4]
  GPIO_InitStruct.Mode = LL_GPIO_MODE_ALTERNATE;
 8000e5c:	2302      	movs	r3, #2
 8000e5e:	60bb      	str	r3, [r7, #8]
  GPIO_InitStruct.Speed = LL_GPIO_SPEED_FREQ_LOW;
 8000e60:	2300      	movs	r3, #0
 8000e62:	60fb      	str	r3, [r7, #12]
  GPIO_InitStruct.OutputType = LL_GPIO_OUTPUT_PUSHPULL;
 8000e64:	2300      	movs	r3, #0
 8000e66:	613b      	str	r3, [r7, #16]
  GPIO_InitStruct.Pull = LL_GPIO_PULL_NO;
 8000e68:	2300      	movs	r3, #0
 8000e6a:	617b      	str	r3, [r7, #20]
  GPIO_InitStruct.Alternate = LL_GPIO_AF_10;
 8000e6c:	230a      	movs	r3, #10
 8000e6e:	61bb      	str	r3, [r7, #24]
  LL_GPIO_Init(Z_STEP_GPIO_Port, &GPIO_InitStruct);
 8000e70:	1d3b      	adds	r3, r7, #4
 8000e72:	4619      	mov	r1, r3
 8000e74:	4804      	ldr	r0, [pc, #16]	; (8000e88 <MX_TIM17_Init+0x120>)
 8000e76:	f000 fea9 	bl	8001bcc <LL_GPIO_Init>

}
 8000e7a:	bf00      	nop
 8000e7c:	3778      	adds	r7, #120	; 0x78
 8000e7e:	46bd      	mov	sp, r7
 8000e80:	bd80      	pop	{r7, pc}
 8000e82:	bf00      	nop
 8000e84:	40014800 	.word	0x40014800
 8000e88:	48000400 	.word	0x48000400

08000e8c <MX_USART2_UART_Init>:
  * @brief USART2 Initialization Function
  * @param None
  * @retval None
  */
static void MX_USART2_UART_Init(void)
{
 8000e8c:	b580      	push	{r7, lr}
 8000e8e:	b08e      	sub	sp, #56	; 0x38
 8000e90:	af00      	add	r7, sp, #0

  /* USER CODE BEGIN USART2_Init 0 */

  /* USER CODE END USART2_Init 0 */

  LL_USART_InitTypeDef USART_InitStruct = {0};
 8000e92:	f107 031c 	add.w	r3, r7, #28
 8000e96:	2200      	movs	r2, #0
 8000e98:	601a      	str	r2, [r3, #0]
 8000e9a:	605a      	str	r2, [r3, #4]
 8000e9c:	609a      	str	r2, [r3, #8]
 8000e9e:	60da      	str	r2, [r3, #12]
 8000ea0:	611a      	str	r2, [r3, #16]
 8000ea2:	615a      	str	r2, [r3, #20]
 8000ea4:	619a      	str	r2, [r3, #24]

  LL_GPIO_InitTypeDef GPIO_InitStruct = {0};
 8000ea6:	1d3b      	adds	r3, r7, #4
 8000ea8:	2200      	movs	r2, #0
 8000eaa:	601a      	str	r2, [r3, #0]
 8000eac:	605a      	str	r2, [r3, #4]
 8000eae:	609a      	str	r2, [r3, #8]
 8000eb0:	60da      	str	r2, [r3, #12]
 8000eb2:	611a      	str	r2, [r3, #16]
 8000eb4:	615a      	str	r2, [r3, #20]

  /* Peripheral clock enable */
  LL_APB1_GRP1_EnableClock(LL_APB1_GRP1_PERIPH_USART2);
 8000eb6:	f44f 3000 	mov.w	r0, #131072	; 0x20000
 8000eba:	f7ff fbeb 	bl	8000694 <LL_APB1_GRP1_EnableClock>

  LL_AHB1_GRP1_EnableClock(LL_AHB1_GRP1_PERIPH_GPIOA);
 8000ebe:	f44f 3000 	mov.w	r0, #131072	; 0x20000
 8000ec2:	f7ff fbcf 	bl	8000664 <LL_AHB1_GRP1_EnableClock>
  /**USART2 GPIO Configuration
  PA2   ------> USART2_TX
  PA3   ------> USART2_RX
  */
  GPIO_InitStruct.Pin = USART_TX_Pin|USART_RX_Pin;
 8000ec6:	230c      	movs	r3, #12
 8000ec8:	607b      	str	r3, [r7, #4]
  GPIO_InitStruct.Mode = LL_GPIO_MODE_ALTERNATE;
 8000eca:	2302      	movs	r3, #2
 8000ecc:	60bb      	str	r3, [r7, #8]
  GPIO_InitStruct.Speed = LL_GPIO_SPEED_FREQ_LOW;
 8000ece:	2300      	movs	r3, #0
 8000ed0:	60fb      	str	r3, [r7, #12]
  GPIO_InitStruct.OutputType = LL_GPIO_OUTPUT_PUSHPULL;
 8000ed2:	2300      	movs	r3, #0
 8000ed4:	613b      	str	r3, [r7, #16]
  GPIO_InitStruct.Pull = LL_GPIO_PULL_NO;
 8000ed6:	2300      	movs	r3, #0
 8000ed8:	617b      	str	r3, [r7, #20]
  GPIO_InitStruct.Alternate = LL_GPIO_AF_7;
 8000eda:	2307      	movs	r3, #7
 8000edc:	61bb      	str	r3, [r7, #24]
  LL_GPIO_Init(GPIOA, &GPIO_InitStruct);
 8000ede:	1d3b      	adds	r3, r7, #4
 8000ee0:	4619      	mov	r1, r3
 8000ee2:	f04f 4090 	mov.w	r0, #1207959552	; 0x48000000
 8000ee6:	f000 fe71 	bl	8001bcc <LL_GPIO_Init>

  /* USER CODE BEGIN USART2_Init 1 */

  /* USER CODE END USART2_Init 1 */
  USART_InitStruct.BaudRate = 38400;
 8000eea:	f44f 4316 	mov.w	r3, #38400	; 0x9600
 8000eee:	61fb      	str	r3, [r7, #28]
  USART_InitStruct.DataWidth = LL_USART_DATAWIDTH_8B;
 8000ef0:	2300      	movs	r3, #0
 8000ef2:	623b      	str	r3, [r7, #32]
  USART_InitStruct.StopBits = LL_USART_STOPBITS_1;
 8000ef4:	2300      	movs	r3, #0
 8000ef6:	627b      	str	r3, [r7, #36]	; 0x24
  USART_InitStruct.Parity = LL_USART_PARITY_NONE;
 8000ef8:	2300      	movs	r3, #0
 8000efa:	62bb      	str	r3, [r7, #40]	; 0x28
  USART_InitStruct.TransferDirection = LL_USART_DIRECTION_TX_RX;
 8000efc:	230c      	movs	r3, #12
 8000efe:	62fb      	str	r3, [r7, #44]	; 0x2c
  USART_InitStruct.HardwareFlowControl = LL_USART_HWCONTROL_NONE;
 8000f00:	2300      	movs	r3, #0
 8000f02:	633b      	str	r3, [r7, #48]	; 0x30
  USART_InitStruct.OverSampling = LL_USART_OVERSAMPLING_16;
 8000f04:	2300      	movs	r3, #0
 8000f06:	637b      	str	r3, [r7, #52]	; 0x34
  LL_USART_Init(USART2, &USART_InitStruct);
 8000f08:	f107 031c 	add.w	r3, r7, #28
 8000f0c:	4619      	mov	r1, r3
 8000f0e:	4808      	ldr	r0, [pc, #32]	; (8000f30 <MX_USART2_UART_Init+0xa4>)
 8000f10:	f001 fd44 	bl	800299c <LL_USART_Init>
  LL_USART_DisableIT_CTS(USART2);
 8000f14:	4806      	ldr	r0, [pc, #24]	; (8000f30 <MX_USART2_UART_Init+0xa4>)
 8000f16:	f7ff fd61 	bl	80009dc <LL_USART_DisableIT_CTS>
  LL_USART_ConfigAsyncMode(USART2);
 8000f1a:	4805      	ldr	r0, [pc, #20]	; (8000f30 <MX_USART2_UART_Init+0xa4>)
 8000f1c:	f7ff fd48 	bl	80009b0 <LL_USART_ConfigAsyncMode>
  LL_USART_Enable(USART2);
 8000f20:	4803      	ldr	r0, [pc, #12]	; (8000f30 <MX_USART2_UART_Init+0xa4>)
 8000f22:	f7ff fd35 	bl	8000990 <LL_USART_Enable>
  /* USER CODE BEGIN USART2_Init 2 */

  /* USER CODE END USART2_Init 2 */

}
 8000f26:	bf00      	nop
 8000f28:	3738      	adds	r7, #56	; 0x38
 8000f2a:	46bd      	mov	sp, r7
 8000f2c:	bd80      	pop	{r7, pc}
 8000f2e:	bf00      	nop
 8000f30:	40004400 	.word	0x40004400

08000f34 <MX_GPIO_Init>:
  * @brief GPIO Initialization Function
  * @param None
  * @retval None
  */
static void MX_GPIO_Init(void)
{
 8000f34:	b580      	push	{r7, lr}
 8000f36:	b08a      	sub	sp, #40	; 0x28
 8000f38:	af00      	add	r7, sp, #0
  LL_EXTI_InitTypeDef EXTI_InitStruct = {0};
 8000f3a:	f107 031c 	add.w	r3, r7, #28
 8000f3e:	2200      	movs	r2, #0
 8000f40:	601a      	str	r2, [r3, #0]
 8000f42:	605a      	str	r2, [r3, #4]
 8000f44:	609a      	str	r2, [r3, #8]
  LL_GPIO_InitTypeDef GPIO_InitStruct = {0};
 8000f46:	1d3b      	adds	r3, r7, #4
 8000f48:	2200      	movs	r2, #0
 8000f4a:	601a      	str	r2, [r3, #0]
 8000f4c:	605a      	str	r2, [r3, #4]
 8000f4e:	609a      	str	r2, [r3, #8]
 8000f50:	60da      	str	r2, [r3, #12]
 8000f52:	611a      	str	r2, [r3, #16]
 8000f54:	615a      	str	r2, [r3, #20]

  /* GPIO Ports Clock Enable */
  LL_AHB1_GRP1_EnableClock(LL_AHB1_GRP1_PERIPH_GPIOC);
 8000f56:	f44f 2000 	mov.w	r0, #524288	; 0x80000
 8000f5a:	f7ff fb83 	bl	8000664 <LL_AHB1_GRP1_EnableClock>
  LL_AHB1_GRP1_EnableClock(LL_AHB1_GRP1_PERIPH_GPIOF);
 8000f5e:	f44f 0080 	mov.w	r0, #4194304	; 0x400000
 8000f62:	f7ff fb7f 	bl	8000664 <LL_AHB1_GRP1_EnableClock>
  LL_AHB1_GRP1_EnableClock(LL_AHB1_GRP1_PERIPH_GPIOA);
 8000f66:	f44f 3000 	mov.w	r0, #131072	; 0x20000
 8000f6a:	f7ff fb7b 	bl	8000664 <LL_AHB1_GRP1_EnableClock>
  LL_AHB1_GRP1_EnableClock(LL_AHB1_GRP1_PERIPH_GPIOB);
 8000f6e:	f44f 2080 	mov.w	r0, #262144	; 0x40000
 8000f72:	f7ff fb77 	bl	8000664 <LL_AHB1_GRP1_EnableClock>

  /**/
  LL_GPIO_ResetOutputPin(GPIOB, X_ENABLE_Pin|Z_ENABLE_Pin|LASER_ENABLE_Pin|X_DIR_Pin);
 8000f76:	f244 0116 	movw	r1, #16406	; 0x4016
 8000f7a:	4861      	ldr	r0, [pc, #388]	; (8001100 <MX_GPIO_Init+0x1cc>)
 8000f7c:	f7ff fdaf 	bl	8000ade <LL_GPIO_ResetOutputPin>

  /**/
  LL_GPIO_ResetOutputPin(Z_DIR_GPIO_Port, Z_DIR_Pin);
 8000f80:	f44f 7180 	mov.w	r1, #256	; 0x100
 8000f84:	f04f 4090 	mov.w	r0, #1207959552	; 0x48000000
 8000f88:	f7ff fda9 	bl	8000ade <LL_GPIO_ResetOutputPin>

  /**/
  LL_SYSCFG_SetEXTISource(LL_SYSCFG_EXTI_PORTC, LL_SYSCFG_EXTI_LINE13);
 8000f8c:	495d      	ldr	r1, [pc, #372]	; (8001104 <MX_GPIO_Init+0x1d0>)
 8000f8e:	2002      	movs	r0, #2
 8000f90:	f7ff fbb0 	bl	80006f4 <LL_SYSCFG_SetEXTISource>

  /**/
  LL_SYSCFG_SetEXTISource(LL_SYSCFG_EXTI_PORTB, LL_SYSCFG_EXTI_LINE15);
 8000f94:	495c      	ldr	r1, [pc, #368]	; (8001108 <MX_GPIO_Init+0x1d4>)
 8000f96:	2001      	movs	r0, #1
 8000f98:	f7ff fbac 	bl	80006f4 <LL_SYSCFG_SetEXTISource>

  /**/
  LL_SYSCFG_SetEXTISource(LL_SYSCFG_EXTI_PORTC, LL_SYSCFG_EXTI_LINE7);
 8000f9c:	495b      	ldr	r1, [pc, #364]	; (800110c <MX_GPIO_Init+0x1d8>)
 8000f9e:	2002      	movs	r0, #2
 8000fa0:	f7ff fba8 	bl	80006f4 <LL_SYSCFG_SetEXTISource>

  /**/
  LL_GPIO_SetPinPull(B1_GPIO_Port, B1_Pin, LL_GPIO_PULL_NO);
 8000fa4:	2200      	movs	r2, #0
 8000fa6:	f44f 5100 	mov.w	r1, #8192	; 0x2000
 8000faa:	4859      	ldr	r0, [pc, #356]	; (8001110 <MX_GPIO_Init+0x1dc>)
 8000fac:	f7ff fd68 	bl	8000a80 <LL_GPIO_SetPinPull>

  /**/
  LL_GPIO_SetPinPull(Z_END_GPIO_Port, Z_END_Pin, LL_GPIO_PULL_UP);
 8000fb0:	2201      	movs	r2, #1
 8000fb2:	f44f 4100 	mov.w	r1, #32768	; 0x8000
 8000fb6:	4852      	ldr	r0, [pc, #328]	; (8001100 <MX_GPIO_Init+0x1cc>)
 8000fb8:	f7ff fd62 	bl	8000a80 <LL_GPIO_SetPinPull>

  /**/
  LL_GPIO_SetPinPull(X_END_GPIO_Port, X_END_Pin, LL_GPIO_PULL_UP);
 8000fbc:	2201      	movs	r2, #1
 8000fbe:	2180      	movs	r1, #128	; 0x80
 8000fc0:	4853      	ldr	r0, [pc, #332]	; (8001110 <MX_GPIO_Init+0x1dc>)
 8000fc2:	f7ff fd5d 	bl	8000a80 <LL_GPIO_SetPinPull>

  /**/
  LL_GPIO_SetPinMode(B1_GPIO_Port, B1_Pin, LL_GPIO_MODE_INPUT);
 8000fc6:	2200      	movs	r2, #0
 8000fc8:	f44f 5100 	mov.w	r1, #8192	; 0x2000
 8000fcc:	4850      	ldr	r0, [pc, #320]	; (8001110 <MX_GPIO_Init+0x1dc>)
 8000fce:	f7ff fd28 	bl	8000a22 <LL_GPIO_SetPinMode>

  /**/
  LL_GPIO_SetPinMode(Z_END_GPIO_Port, Z_END_Pin, LL_GPIO_MODE_INPUT);
 8000fd2:	2200      	movs	r2, #0
 8000fd4:	f44f 4100 	mov.w	r1, #32768	; 0x8000
 8000fd8:	4849      	ldr	r0, [pc, #292]	; (8001100 <MX_GPIO_Init+0x1cc>)
 8000fda:	f7ff fd22 	bl	8000a22 <LL_GPIO_SetPinMode>

  /**/
  LL_GPIO_SetPinMode(X_END_GPIO_Port, X_END_Pin, LL_GPIO_MODE_INPUT);
 8000fde:	2200      	movs	r2, #0
 8000fe0:	2180      	movs	r1, #128	; 0x80
 8000fe2:	484b      	ldr	r0, [pc, #300]	; (8001110 <MX_GPIO_Init+0x1dc>)
 8000fe4:	f7ff fd1d 	bl	8000a22 <LL_GPIO_SetPinMode>

  /**/
  EXTI_InitStruct.Line_0_31 = LL_EXTI_LINE_13;
 8000fe8:	f44f 5300 	mov.w	r3, #8192	; 0x2000
 8000fec:	61fb      	str	r3, [r7, #28]
  EXTI_InitStruct.Line_32_63 = LL_EXTI_LINE_NONE;
 8000fee:	2300      	movs	r3, #0
 8000ff0:	623b      	str	r3, [r7, #32]
  EXTI_InitStruct.LineCommand = ENABLE;
 8000ff2:	2301      	movs	r3, #1
 8000ff4:	f887 3024 	strb.w	r3, [r7, #36]	; 0x24
  EXTI_InitStruct.Mode = LL_EXTI_MODE_IT;
 8000ff8:	2300      	movs	r3, #0
 8000ffa:	f887 3025 	strb.w	r3, [r7, #37]	; 0x25
  EXTI_InitStruct.Trigger = LL_EXTI_TRIGGER_FALLING;
 8000ffe:	2302      	movs	r3, #2
 8001000:	f887 3026 	strb.w	r3, [r7, #38]	; 0x26
  LL_EXTI_Init(&EXTI_InitStruct);
 8001004:	f107 031c 	add.w	r3, r7, #28
 8001008:	4618      	mov	r0, r3
 800100a:	f000 fbe7 	bl	80017dc <LL_EXTI_Init>

  /**/
  EXTI_InitStruct.Line_0_31 = LL_EXTI_LINE_15;
 800100e:	f44f 4300 	mov.w	r3, #32768	; 0x8000
 8001012:	61fb      	str	r3, [r7, #28]
  EXTI_InitStruct.Line_32_63 = LL_EXTI_LINE_NONE;
 8001014:	2300      	movs	r3, #0
 8001016:	623b      	str	r3, [r7, #32]
  EXTI_InitStruct.LineCommand = ENABLE;
 8001018:	2301      	movs	r3, #1
 800101a:	f887 3024 	strb.w	r3, [r7, #36]	; 0x24
  EXTI_InitStruct.Mode = LL_EXTI_MODE_IT;
 800101e:	2300      	movs	r3, #0
 8001020:	f887 3025 	strb.w	r3, [r7, #37]	; 0x25
  EXTI_InitStruct.Trigger = LL_EXTI_TRIGGER_FALLING;
 8001024:	2302      	movs	r3, #2
 8001026:	f887 3026 	strb.w	r3, [r7, #38]	; 0x26
  LL_EXTI_Init(&EXTI_InitStruct);
 800102a:	f107 031c 	add.w	r3, r7, #28
 800102e:	4618      	mov	r0, r3
 8001030:	f000 fbd4 	bl	80017dc <LL_EXTI_Init>

  /**/
  EXTI_InitStruct.Line_0_31 = LL_EXTI_LINE_7;
 8001034:	2380      	movs	r3, #128	; 0x80
 8001036:	61fb      	str	r3, [r7, #28]
  EXTI_InitStruct.Line_32_63 = LL_EXTI_LINE_NONE;
 8001038:	2300      	movs	r3, #0
 800103a:	623b      	str	r3, [r7, #32]
  EXTI_InitStruct.LineCommand = ENABLE;
 800103c:	2301      	movs	r3, #1
 800103e:	f887 3024 	strb.w	r3, [r7, #36]	; 0x24
  EXTI_InitStruct.Mode = LL_EXTI_MODE_IT;
 8001042:	2300      	movs	r3, #0
 8001044:	f887 3025 	strb.w	r3, [r7, #37]	; 0x25
  EXTI_InitStruct.Trigger = LL_EXTI_TRIGGER_FALLING;
 8001048:	2302      	movs	r3, #2
 800104a:	f887 3026 	strb.w	r3, [r7, #38]	; 0x26
  LL_EXTI_Init(&EXTI_InitStruct);
 800104e:	f107 031c 	add.w	r3, r7, #28
 8001052:	4618      	mov	r0, r3
 8001054:	f000 fbc2 	bl	80017dc <LL_EXTI_Init>

  /**/
  GPIO_InitStruct.Pin = X_ENABLE_Pin|Z_ENABLE_Pin;
 8001058:	2306      	movs	r3, #6
 800105a:	607b      	str	r3, [r7, #4]
  GPIO_InitStruct.Mode = LL_GPIO_MODE_OUTPUT;
 800105c:	2301      	movs	r3, #1
 800105e:	60bb      	str	r3, [r7, #8]
  GPIO_InitStruct.Speed = LL_GPIO_SPEED_FREQ_LOW;
 8001060:	2300      	movs	r3, #0
 8001062:	60fb      	str	r3, [r7, #12]
  GPIO_InitStruct.OutputType = LL_GPIO_OUTPUT_PUSHPULL;
 8001064:	2300      	movs	r3, #0
 8001066:	613b      	str	r3, [r7, #16]
  GPIO_InitStruct.Pull = LL_GPIO_PULL_NO;
 8001068:	2300      	movs	r3, #0
 800106a:	617b      	str	r3, [r7, #20]
  LL_GPIO_Init(GPIOB, &GPIO_InitStruct);
 800106c:	1d3b      	adds	r3, r7, #4
 800106e:	4619      	mov	r1, r3
 8001070:	4823      	ldr	r0, [pc, #140]	; (8001100 <MX_GPIO_Init+0x1cc>)
 8001072:	f000 fdab 	bl	8001bcc <LL_GPIO_Init>

  /**/
  GPIO_InitStruct.Pin = LASER_ENABLE_Pin|X_DIR_Pin;
 8001076:	f244 0310 	movw	r3, #16400	; 0x4010
 800107a:	607b      	str	r3, [r7, #4]
  GPIO_InitStruct.Mode = LL_GPIO_MODE_OUTPUT;
 800107c:	2301      	movs	r3, #1
 800107e:	60bb      	str	r3, [r7, #8]
  GPIO_InitStruct.Speed = LL_GPIO_SPEED_FREQ_LOW;
 8001080:	2300      	movs	r3, #0
 8001082:	60fb      	str	r3, [r7, #12]
  GPIO_InitStruct.OutputType = LL_GPIO_OUTPUT_PUSHPULL;
 8001084:	2300      	movs	r3, #0
 8001086:	613b      	str	r3, [r7, #16]
  GPIO_InitStruct.Pull = LL_GPIO_PULL_DOWN;
 8001088:	2302      	movs	r3, #2
 800108a:	617b      	str	r3, [r7, #20]
  LL_GPIO_Init(GPIOB, &GPIO_InitStruct);
 800108c:	1d3b      	adds	r3, r7, #4
 800108e:	4619      	mov	r1, r3
 8001090:	481b      	ldr	r0, [pc, #108]	; (8001100 <MX_GPIO_Init+0x1cc>)
 8001092:	f000 fd9b 	bl	8001bcc <LL_GPIO_Init>

  /**/
  GPIO_InitStruct.Pin = Z_DIR_Pin;
 8001096:	f44f 7380 	mov.w	r3, #256	; 0x100
 800109a:	607b      	str	r3, [r7, #4]
  GPIO_InitStruct.Mode = LL_GPIO_MODE_OUTPUT;
 800109c:	2301      	movs	r3, #1
 800109e:	60bb      	str	r3, [r7, #8]
  GPIO_InitStruct.Speed = LL_GPIO_SPEED_FREQ_LOW;
 80010a0:	2300      	movs	r3, #0
 80010a2:	60fb      	str	r3, [r7, #12]
  GPIO_InitStruct.OutputType = LL_GPIO_OUTPUT_PUSHPULL;
 80010a4:	2300      	movs	r3, #0
 80010a6:	613b      	str	r3, [r7, #16]
  GPIO_InitStruct.Pull = LL_GPIO_PULL_DOWN;
 80010a8:	2302      	movs	r3, #2
 80010aa:	617b      	str	r3, [r7, #20]
  LL_GPIO_Init(Z_DIR_GPIO_Port, &GPIO_InitStruct);
 80010ac:	1d3b      	adds	r3, r7, #4
 80010ae:	4619      	mov	r1, r3
 80010b0:	f04f 4090 	mov.w	r0, #1207959552	; 0x48000000
 80010b4:	f000 fd8a 	bl	8001bcc <LL_GPIO_Init>

  /* EXTI interrupt init*/
  NVIC_SetPriority(EXTI9_5_IRQn, NVIC_EncodePriority(NVIC_GetPriorityGrouping(),0, 0));
 80010b8:	f7ff f954 	bl	8000364 <__NVIC_GetPriorityGrouping>
 80010bc:	4603      	mov	r3, r0
 80010be:	2200      	movs	r2, #0
 80010c0:	2100      	movs	r1, #0
 80010c2:	4618      	mov	r0, r3
 80010c4:	f7ff f9a4 	bl	8000410 <NVIC_EncodePriority>
 80010c8:	4603      	mov	r3, r0
 80010ca:	4619      	mov	r1, r3
 80010cc:	2017      	movs	r0, #23
 80010ce:	f7ff f975 	bl	80003bc <__NVIC_SetPriority>
  NVIC_EnableIRQ(EXTI9_5_IRQn);
 80010d2:	2017      	movs	r0, #23
 80010d4:	f7ff f954 	bl	8000380 <__NVIC_EnableIRQ>
  NVIC_SetPriority(EXTI15_10_IRQn, NVIC_EncodePriority(NVIC_GetPriorityGrouping(),0, 0));
 80010d8:	f7ff f944 	bl	8000364 <__NVIC_GetPriorityGrouping>
 80010dc:	4603      	mov	r3, r0
 80010de:	2200      	movs	r2, #0
 80010e0:	2100      	movs	r1, #0
 80010e2:	4618      	mov	r0, r3
 80010e4:	f7ff f994 	bl	8000410 <NVIC_EncodePriority>
 80010e8:	4603      	mov	r3, r0
 80010ea:	4619      	mov	r1, r3
 80010ec:	2028      	movs	r0, #40	; 0x28
 80010ee:	f7ff f965 	bl	80003bc <__NVIC_SetPriority>
  NVIC_EnableIRQ(EXTI15_10_IRQn);
 80010f2:	2028      	movs	r0, #40	; 0x28
 80010f4:	f7ff f944 	bl	8000380 <__NVIC_EnableIRQ>

}
 80010f8:	bf00      	nop
 80010fa:	3728      	adds	r7, #40	; 0x28
 80010fc:	46bd      	mov	sp, r7
 80010fe:	bd80      	pop	{r7, pc}
 8001100:	48000400 	.word	0x48000400
 8001104:	00f00003 	.word	0x00f00003
 8001108:	f0000003 	.word	0xf0000003
 800110c:	f0000001 	.word	0xf0000001
 8001110:	48000800 	.word	0x48000800

08001114 <LL_EXTI_DisableIT_0_31>:
  *         @arg @ref LL_EXTI_LINE_ALL_0_31
  * @note   Please check each device line mapping for EXTI Line availability
  * @retval None
  */
__STATIC_INLINE void LL_EXTI_DisableIT_0_31(uint32_t ExtiLine)
{
 8001114:	b480      	push	{r7}
 8001116:	b083      	sub	sp, #12
 8001118:	af00      	add	r7, sp, #0
 800111a:	6078      	str	r0, [r7, #4]
  CLEAR_BIT(EXTI->IMR, ExtiLine);
 800111c:	4b06      	ldr	r3, [pc, #24]	; (8001138 <LL_EXTI_DisableIT_0_31+0x24>)
 800111e:	681a      	ldr	r2, [r3, #0]
 8001120:	687b      	ldr	r3, [r7, #4]
 8001122:	43db      	mvns	r3, r3
 8001124:	4904      	ldr	r1, [pc, #16]	; (8001138 <LL_EXTI_DisableIT_0_31+0x24>)
 8001126:	4013      	ands	r3, r2
 8001128:	600b      	str	r3, [r1, #0]
}
 800112a:	bf00      	nop
 800112c:	370c      	adds	r7, #12
 800112e:	46bd      	mov	sp, r7
 8001130:	f85d 7b04 	ldr.w	r7, [sp], #4
 8001134:	4770      	bx	lr
 8001136:	bf00      	nop
 8001138:	40010400 	.word	0x40010400

0800113c <LL_TIM_EnableCounter>:
{
 800113c:	b480      	push	{r7}
 800113e:	b083      	sub	sp, #12
 8001140:	af00      	add	r7, sp, #0
 8001142:	6078      	str	r0, [r7, #4]
  SET_BIT(TIMx->CR1, TIM_CR1_CEN);
 8001144:	687b      	ldr	r3, [r7, #4]
 8001146:	681b      	ldr	r3, [r3, #0]
 8001148:	f043 0201 	orr.w	r2, r3, #1
 800114c:	687b      	ldr	r3, [r7, #4]
 800114e:	601a      	str	r2, [r3, #0]
}
 8001150:	bf00      	nop
 8001152:	370c      	adds	r7, #12
 8001154:	46bd      	mov	sp, r7
 8001156:	f85d 7b04 	ldr.w	r7, [sp], #4
 800115a:	4770      	bx	lr

0800115c <LL_GPIO_SetOutputPin>:
{
 800115c:	b480      	push	{r7}
 800115e:	b083      	sub	sp, #12
 8001160:	af00      	add	r7, sp, #0
 8001162:	6078      	str	r0, [r7, #4]
 8001164:	6039      	str	r1, [r7, #0]
  WRITE_REG(GPIOx->BSRR, PinMask);
 8001166:	687b      	ldr	r3, [r7, #4]
 8001168:	683a      	ldr	r2, [r7, #0]
 800116a:	619a      	str	r2, [r3, #24]
}
 800116c:	bf00      	nop
 800116e:	370c      	adds	r7, #12
 8001170:	46bd      	mov	sp, r7
 8001172:	f85d 7b04 	ldr.w	r7, [sp], #4
 8001176:	4770      	bx	lr

08001178 <LL_GPIO_ResetOutputPin>:
{
 8001178:	b480      	push	{r7}
 800117a:	b083      	sub	sp, #12
 800117c:	af00      	add	r7, sp, #0
 800117e:	6078      	str	r0, [r7, #4]
 8001180:	6039      	str	r1, [r7, #0]
  WRITE_REG(GPIOx->BRR, PinMask);
 8001182:	687b      	ldr	r3, [r7, #4]
 8001184:	683a      	ldr	r2, [r7, #0]
 8001186:	629a      	str	r2, [r3, #40]	; 0x28
}
 8001188:	bf00      	nop
 800118a:	370c      	adds	r7, #12
 800118c:	46bd      	mov	sp, r7
 800118e:	f85d 7b04 	ldr.w	r7, [sp], #4
 8001192:	4770      	bx	lr

08001194 <handle_endstop_x>:
int _dir_x = 1;
int _dir_y = 1;
bool new_coordinates = false;
bool finished = true;

inline void handle_endstop_x() {
 8001194:	b580      	push	{r7, lr}
 8001196:	af00      	add	r7, sp, #0
	if (is_homing) {
 8001198:	4b05      	ldr	r3, [pc, #20]	; (80011b0 <handle_endstop_x+0x1c>)
 800119a:	781b      	ldrb	r3, [r3, #0]
 800119c:	2b00      	cmp	r3, #0
 800119e:	d005      	beq.n	80011ac <handle_endstop_x+0x18>
		DISABLE_ENDSTOP_X;
 80011a0:	2080      	movs	r0, #128	; 0x80
 80011a2:	f7ff ffb7 	bl	8001114 <LL_EXTI_DisableIT_0_31>
		homed_x = true;
 80011a6:	4b03      	ldr	r3, [pc, #12]	; (80011b4 <handle_endstop_x+0x20>)
 80011a8:	2201      	movs	r2, #1
 80011aa:	701a      	strb	r2, [r3, #0]
	}
}
 80011ac:	bf00      	nop
 80011ae:	bd80      	pop	{r7, pc}
 80011b0:	2000002a 	.word	0x2000002a
 80011b4:	20000028 	.word	0x20000028

080011b8 <handle_endstop_y>:

inline void handle_endstop_y() {
 80011b8:	b580      	push	{r7, lr}
 80011ba:	af00      	add	r7, sp, #0
	//DO_STEP_Y;
	if (is_homing) {
 80011bc:	4b06      	ldr	r3, [pc, #24]	; (80011d8 <handle_endstop_y+0x20>)
 80011be:	781b      	ldrb	r3, [r3, #0]
 80011c0:	2b00      	cmp	r3, #0
 80011c2:	d006      	beq.n	80011d2 <handle_endstop_y+0x1a>
		DISABLE_ENDSTOP_Y;
 80011c4:	f44f 4000 	mov.w	r0, #32768	; 0x8000
 80011c8:	f7ff ffa4 	bl	8001114 <LL_EXTI_DisableIT_0_31>
		homed_y = true;
 80011cc:	4b03      	ldr	r3, [pc, #12]	; (80011dc <handle_endstop_y+0x24>)
 80011ce:	2201      	movs	r2, #1
 80011d0:	701a      	strb	r2, [r3, #0]
	}
}
 80011d2:	bf00      	nop
 80011d4:	bd80      	pop	{r7, pc}
 80011d6:	bf00      	nop
 80011d8:	2000002a 	.word	0x2000002a
 80011dc:	20000029 	.word	0x20000029

080011e0 <do_step_x>:



inline void do_step_x() {
 80011e0:	b580      	push	{r7, lr}
 80011e2:	af00      	add	r7, sp, #0
	LL_TIM_EnableCounter(TIM16);
 80011e4:	4805      	ldr	r0, [pc, #20]	; (80011fc <do_step_x+0x1c>)
 80011e6:	f7ff ffa9 	bl	800113c <LL_TIM_EnableCounter>
	_steps_x += _dir_x;
 80011ea:	4b05      	ldr	r3, [pc, #20]	; (8001200 <do_step_x+0x20>)
 80011ec:	681a      	ldr	r2, [r3, #0]
 80011ee:	4b05      	ldr	r3, [pc, #20]	; (8001204 <do_step_x+0x24>)
 80011f0:	681b      	ldr	r3, [r3, #0]
 80011f2:	4413      	add	r3, r2
 80011f4:	4a02      	ldr	r2, [pc, #8]	; (8001200 <do_step_x+0x20>)
 80011f6:	6013      	str	r3, [r2, #0]
}
 80011f8:	bf00      	nop
 80011fa:	bd80      	pop	{r7, pc}
 80011fc:	40014400 	.word	0x40014400
 8001200:	2000002c 	.word	0x2000002c
 8001204:	20000000 	.word	0x20000000

08001208 <do_step_y>:

inline void do_step_y() {
 8001208:	b580      	push	{r7, lr}
 800120a:	af00      	add	r7, sp, #0
	LL_TIM_EnableCounter(TIM17);
 800120c:	4805      	ldr	r0, [pc, #20]	; (8001224 <do_step_y+0x1c>)
 800120e:	f7ff ff95 	bl	800113c <LL_TIM_EnableCounter>
	_steps_y += _dir_y;
 8001212:	4b05      	ldr	r3, [pc, #20]	; (8001228 <do_step_y+0x20>)
 8001214:	681a      	ldr	r2, [r3, #0]
 8001216:	4b05      	ldr	r3, [pc, #20]	; (800122c <do_step_y+0x24>)
 8001218:	681b      	ldr	r3, [r3, #0]
 800121a:	4413      	add	r3, r2
 800121c:	4a02      	ldr	r2, [pc, #8]	; (8001228 <do_step_y+0x20>)
 800121e:	6013      	str	r3, [r2, #0]
}
 8001220:	bf00      	nop
 8001222:	bd80      	pop	{r7, pc}
 8001224:	40014800 	.word	0x40014800
 8001228:	20000030 	.word	0x20000030
 800122c:	20000004 	.word	0x20000004

08001230 <set_dir_positive_x>:

inline void set_dir_positive_x() {
 8001230:	b580      	push	{r7, lr}
 8001232:	af00      	add	r7, sp, #0
	LL_GPIO_ResetOutputPin(X_DIR_GPIO_Port, X_DIR_Pin);
 8001234:	2110      	movs	r1, #16
 8001236:	4804      	ldr	r0, [pc, #16]	; (8001248 <set_dir_positive_x+0x18>)
 8001238:	f7ff ff9e 	bl	8001178 <LL_GPIO_ResetOutputPin>
	_dir_x = 1;
 800123c:	4b03      	ldr	r3, [pc, #12]	; (800124c <set_dir_positive_x+0x1c>)
 800123e:	2201      	movs	r2, #1
 8001240:	601a      	str	r2, [r3, #0]

}
 8001242:	bf00      	nop
 8001244:	bd80      	pop	{r7, pc}
 8001246:	bf00      	nop
 8001248:	48000400 	.word	0x48000400
 800124c:	20000000 	.word	0x20000000

08001250 <set_dir_positive_y>:
inline void set_dir_negative_x() {
	LL_GPIO_SetOutputPin(X_DIR_GPIO_Port, X_DIR_Pin);
	_dir_x = -1;
}

inline void set_dir_positive_y() {
 8001250:	b580      	push	{r7, lr}
 8001252:	af00      	add	r7, sp, #0
	LL_GPIO_SetOutputPin(Z_DIR_GPIO_Port, Z_DIR_Pin);
 8001254:	f44f 7180 	mov.w	r1, #256	; 0x100
 8001258:	f04f 4090 	mov.w	r0, #1207959552	; 0x48000000
 800125c:	f7ff ff7e 	bl	800115c <LL_GPIO_SetOutputPin>
	_dir_y = 1;
 8001260:	4b02      	ldr	r3, [pc, #8]	; (800126c <set_dir_positive_y+0x1c>)
 8001262:	2201      	movs	r2, #1
 8001264:	601a      	str	r2, [r3, #0]
}
 8001266:	bf00      	nop
 8001268:	bd80      	pop	{r7, pc}
 800126a:	bf00      	nop
 800126c:	20000004 	.word	0x20000004

08001270 <LL_EXTI_IsActiveFlag_0_31>:
  *         @arg @ref LL_EXTI_LINE_31
  * @note   Please check each device line mapping for EXTI Line availability
  * @retval State of bit (1 or 0).
  */
__STATIC_INLINE uint32_t LL_EXTI_IsActiveFlag_0_31(uint32_t ExtiLine)
{
 8001270:	b480      	push	{r7}
 8001272:	b083      	sub	sp, #12
 8001274:	af00      	add	r7, sp, #0
 8001276:	6078      	str	r0, [r7, #4]
  return (READ_BIT(EXTI->PR, ExtiLine) == (ExtiLine));
 8001278:	4b07      	ldr	r3, [pc, #28]	; (8001298 <LL_EXTI_IsActiveFlag_0_31+0x28>)
 800127a:	695a      	ldr	r2, [r3, #20]
 800127c:	687b      	ldr	r3, [r7, #4]
 800127e:	4013      	ands	r3, r2
 8001280:	687a      	ldr	r2, [r7, #4]
 8001282:	429a      	cmp	r2, r3
 8001284:	bf0c      	ite	eq
 8001286:	2301      	moveq	r3, #1
 8001288:	2300      	movne	r3, #0
 800128a:	b2db      	uxtb	r3, r3
}
 800128c:	4618      	mov	r0, r3
 800128e:	370c      	adds	r7, #12
 8001290:	46bd      	mov	sp, r7
 8001292:	f85d 7b04 	ldr.w	r7, [sp], #4
 8001296:	4770      	bx	lr
 8001298:	40010400 	.word	0x40010400

0800129c <LL_EXTI_ClearFlag_0_31>:
  *         @arg @ref LL_EXTI_LINE_31
  * @note   Please check each device line mapping for EXTI Line availability
  * @retval None
  */
__STATIC_INLINE void LL_EXTI_ClearFlag_0_31(uint32_t ExtiLine)
{
 800129c:	b480      	push	{r7}
 800129e:	b083      	sub	sp, #12
 80012a0:	af00      	add	r7, sp, #0
 80012a2:	6078      	str	r0, [r7, #4]
  WRITE_REG(EXTI->PR, ExtiLine);
 80012a4:	4a04      	ldr	r2, [pc, #16]	; (80012b8 <LL_EXTI_ClearFlag_0_31+0x1c>)
 80012a6:	687b      	ldr	r3, [r7, #4]
 80012a8:	6153      	str	r3, [r2, #20]
}
 80012aa:	bf00      	nop
 80012ac:	370c      	adds	r7, #12
 80012ae:	46bd      	mov	sp, r7
 80012b0:	f85d 7b04 	ldr.w	r7, [sp], #4
 80012b4:	4770      	bx	lr
 80012b6:	bf00      	nop
 80012b8:	40010400 	.word	0x40010400

080012bc <LL_TIM_ClearFlag_CC1>:
{
 80012bc:	b480      	push	{r7}
 80012be:	b083      	sub	sp, #12
 80012c0:	af00      	add	r7, sp, #0
 80012c2:	6078      	str	r0, [r7, #4]
  WRITE_REG(TIMx->SR, ~(TIM_SR_CC1IF));
 80012c4:	687b      	ldr	r3, [r7, #4]
 80012c6:	f06f 0202 	mvn.w	r2, #2
 80012ca:	611a      	str	r2, [r3, #16]
}
 80012cc:	bf00      	nop
 80012ce:	370c      	adds	r7, #12
 80012d0:	46bd      	mov	sp, r7
 80012d2:	f85d 7b04 	ldr.w	r7, [sp], #4
 80012d6:	4770      	bx	lr

080012d8 <NMI_Handler>:
/******************************************************************************/
/**
  * @brief This function handles Non maskable interrupt.
  */
void NMI_Handler(void)
{
 80012d8:	b480      	push	{r7}
 80012da:	af00      	add	r7, sp, #0
  /* USER CODE BEGIN NonMaskableInt_IRQn 0 */

  /* USER CODE END NonMaskableInt_IRQn 0 */
  /* USER CODE BEGIN NonMaskableInt_IRQn 1 */
  while (1)
 80012dc:	e7fe      	b.n	80012dc <NMI_Handler+0x4>

080012de <HardFault_Handler>:

/**
  * @brief This function handles Hard fault interrupt.
  */
void HardFault_Handler(void)
{
 80012de:	b480      	push	{r7}
 80012e0:	af00      	add	r7, sp, #0
  /* USER CODE BEGIN HardFault_IRQn 0 */

  /* USER CODE END HardFault_IRQn 0 */
  while (1)
 80012e2:	e7fe      	b.n	80012e2 <HardFault_Handler+0x4>

080012e4 <MemManage_Handler>:

/**
  * @brief This function handles Memory management fault.
  */
void MemManage_Handler(void)
{
 80012e4:	b480      	push	{r7}
 80012e6:	af00      	add	r7, sp, #0
  /* USER CODE BEGIN MemoryManagement_IRQn 0 */

  /* USER CODE END MemoryManagement_IRQn 0 */
  while (1)
 80012e8:	e7fe      	b.n	80012e8 <MemManage_Handler+0x4>

080012ea <BusFault_Handler>:

/**
  * @brief This function handles Pre-fetch fault, memory access fault.
  */
void BusFault_Handler(void)
{
 80012ea:	b480      	push	{r7}
 80012ec:	af00      	add	r7, sp, #0
  /* USER CODE BEGIN BusFault_IRQn 0 */

  /* USER CODE END BusFault_IRQn 0 */
  while (1)
 80012ee:	e7fe      	b.n	80012ee <BusFault_Handler+0x4>

080012f0 <UsageFault_Handler>:

/**
  * @brief This function handles Undefined instruction or illegal state.
  */
void UsageFault_Handler(void)
{
 80012f0:	b480      	push	{r7}
 80012f2:	af00      	add	r7, sp, #0
  /* USER CODE BEGIN UsageFault_IRQn 0 */

  /* USER CODE END UsageFault_IRQn 0 */
  while (1)
 80012f4:	e7fe      	b.n	80012f4 <UsageFault_Handler+0x4>

080012f6 <SVC_Handler>:

/**
  * @brief This function handles System service call via SWI instruction.
  */
void SVC_Handler(void)
{
 80012f6:	b480      	push	{r7}
 80012f8:	af00      	add	r7, sp, #0

  /* USER CODE END SVCall_IRQn 0 */
  /* USER CODE BEGIN SVCall_IRQn 1 */

  /* USER CODE END SVCall_IRQn 1 */
}
 80012fa:	bf00      	nop
 80012fc:	46bd      	mov	sp, r7
 80012fe:	f85d 7b04 	ldr.w	r7, [sp], #4
 8001302:	4770      	bx	lr

08001304 <DebugMon_Handler>:

/**
  * @brief This function handles Debug monitor.
  */
void DebugMon_Handler(void)
{
 8001304:	b480      	push	{r7}
 8001306:	af00      	add	r7, sp, #0

  /* USER CODE END DebugMonitor_IRQn 0 */
  /* USER CODE BEGIN DebugMonitor_IRQn 1 */

  /* USER CODE END DebugMonitor_IRQn 1 */
}
 8001308:	bf00      	nop
 800130a:	46bd      	mov	sp, r7
 800130c:	f85d 7b04 	ldr.w	r7, [sp], #4
 8001310:	4770      	bx	lr

08001312 <PendSV_Handler>:

/**
  * @brief This function handles Pendable request for system service.
  */
void PendSV_Handler(void)
{
 8001312:	b480      	push	{r7}
 8001314:	af00      	add	r7, sp, #0

  /* USER CODE END PendSV_IRQn 0 */
  /* USER CODE BEGIN PendSV_IRQn 1 */

  /* USER CODE END PendSV_IRQn 1 */
}
 8001316:	bf00      	nop
 8001318:	46bd      	mov	sp, r7
 800131a:	f85d 7b04 	ldr.w	r7, [sp], #4
 800131e:	4770      	bx	lr

08001320 <SysTick_Handler>:

/**
  * @brief This function handles System tick timer.
  */
void SysTick_Handler(void)
{
 8001320:	b480      	push	{r7}
 8001322:	af00      	add	r7, sp, #0
  /* USER CODE END SysTick_IRQn 0 */

  /* USER CODE BEGIN SysTick_IRQn 1 */

  /* USER CODE END SysTick_IRQn 1 */
}
 8001324:	bf00      	nop
 8001326:	46bd      	mov	sp, r7
 8001328:	f85d 7b04 	ldr.w	r7, [sp], #4
 800132c:	4770      	bx	lr

0800132e <EXTI9_5_IRQHandler>:

/**
  * @brief This function handles EXTI line[9:5] interrupts.
  */
void EXTI9_5_IRQHandler(void)
{
 800132e:	b580      	push	{r7, lr}
 8001330:	af00      	add	r7, sp, #0
  /* USER CODE BEGIN EXTI9_5_IRQn 0 */

  /* USER CODE END EXTI9_5_IRQn 0 */
  if (LL_EXTI_IsActiveFlag_0_31(LL_EXTI_LINE_7) != RESET)
 8001332:	2080      	movs	r0, #128	; 0x80
 8001334:	f7ff ff9c 	bl	8001270 <LL_EXTI_IsActiveFlag_0_31>
 8001338:	4603      	mov	r3, r0
 800133a:	2b00      	cmp	r3, #0
 800133c:	d004      	beq.n	8001348 <EXTI9_5_IRQHandler+0x1a>
  {
    LL_EXTI_ClearFlag_0_31(LL_EXTI_LINE_7);
 800133e:	2080      	movs	r0, #128	; 0x80
 8001340:	f7ff ffac 	bl	800129c <LL_EXTI_ClearFlag_0_31>
    /* USER CODE BEGIN LL_EXTI_LINE_7 */
    //LL_EXTI_EnableIT_0_31(LL_EXTI_LINE_15);
    handle_endstop_x();
 8001344:	f7ff ff26 	bl	8001194 <handle_endstop_x>
    /* USER CODE END LL_EXTI_LINE_7 */
  }
  /* USER CODE BEGIN EXTI9_5_IRQn 1 */

  /* USER CODE END EXTI9_5_IRQn 1 */
}
 8001348:	bf00      	nop
 800134a:	bd80      	pop	{r7, pc}

0800134c <TIM2_IRQHandler>:

/**
  * @brief This function handles TIM2 global interrupt.
  */
void TIM2_IRQHandler(void) {
 800134c:	b580      	push	{r7, lr}
 800134e:	af00      	add	r7, sp, #0
	static int dx, dy;
	//static int8_t sx, sy;
	static int error, e2;
	static int desired_steps_x = 0, desired_steps_y = 0;

	LL_TIM_ClearFlag_CC1(TIM2);
 8001350:	f04f 4080 	mov.w	r0, #1073741824	; 0x40000000
 8001354:	f7ff ffb2 	bl	80012bc <LL_TIM_ClearFlag_CC1>
	tim2Tick++;
 8001358:	4b4d      	ldr	r3, [pc, #308]	; (8001490 <TIM2_IRQHandler+0x144>)
 800135a:	681b      	ldr	r3, [r3, #0]
 800135c:	3301      	adds	r3, #1
 800135e:	4a4c      	ldr	r2, [pc, #304]	; (8001490 <TIM2_IRQHandler+0x144>)
 8001360:	6013      	str	r3, [r2, #0]
	if (FLAG_X && FLAG_Y) {
 8001362:	4b4c      	ldr	r3, [pc, #304]	; (8001494 <TIM2_IRQHandler+0x148>)
 8001364:	781b      	ldrb	r3, [r3, #0]
 8001366:	2b00      	cmp	r3, #0
 8001368:	d012      	beq.n	8001390 <TIM2_IRQHandler+0x44>
 800136a:	4b4b      	ldr	r3, [pc, #300]	; (8001498 <TIM2_IRQHandler+0x14c>)
 800136c:	781b      	ldrb	r3, [r3, #0]
 800136e:	2b00      	cmp	r3, #0
 8001370:	d00e      	beq.n	8001390 <TIM2_IRQHandler+0x44>
		if (tim2Tick >= 14) {
 8001372:	4b47      	ldr	r3, [pc, #284]	; (8001490 <TIM2_IRQHandler+0x144>)
 8001374:	681b      	ldr	r3, [r3, #0]
 8001376:	2b0d      	cmp	r3, #13
 8001378:	d914      	bls.n	80013a4 <TIM2_IRQHandler+0x58>
			do_step_x();
 800137a:	f7ff ff31 	bl	80011e0 <do_step_x>
			do_step_y();
 800137e:	f7ff ff43 	bl	8001208 <do_step_y>
			tim2Tick = 0;
 8001382:	4b43      	ldr	r3, [pc, #268]	; (8001490 <TIM2_IRQHandler+0x144>)
 8001384:	2200      	movs	r2, #0
 8001386:	601a      	str	r2, [r3, #0]
			calculation_done = false;
 8001388:	4b44      	ldr	r3, [pc, #272]	; (800149c <TIM2_IRQHandler+0x150>)
 800138a:	2200      	movs	r2, #0
 800138c:	701a      	strb	r2, [r3, #0]
		if (tim2Tick >= 14) {
 800138e:	e009      	b.n	80013a4 <TIM2_IRQHandler+0x58>
		}
	} else {
		if (tim2Tick >= 10) {
 8001390:	4b3f      	ldr	r3, [pc, #252]	; (8001490 <TIM2_IRQHandler+0x144>)
 8001392:	681b      	ldr	r3, [r3, #0]
 8001394:	2b09      	cmp	r3, #9
 8001396:	d905      	bls.n	80013a4 <TIM2_IRQHandler+0x58>
			tim2Tick = 0;
 8001398:	4b3d      	ldr	r3, [pc, #244]	; (8001490 <TIM2_IRQHandler+0x144>)
 800139a:	2200      	movs	r2, #0
 800139c:	601a      	str	r2, [r3, #0]
			calculation_done = false;
 800139e:	4b3f      	ldr	r3, [pc, #252]	; (800149c <TIM2_IRQHandler+0x150>)
 80013a0:	2200      	movs	r2, #0
 80013a2:	701a      	strb	r2, [r3, #0]
	}

	/* USER CODE END TIM2_IRQn 0 */
	/* USER CODE BEGIN TIM2_IRQn 1 */

	if (calculation_done) {
 80013a4:	4b3d      	ldr	r3, [pc, #244]	; (800149c <TIM2_IRQHandler+0x150>)
 80013a6:	781b      	ldrb	r3, [r3, #0]
 80013a8:	2b00      	cmp	r3, #0
 80013aa:	d168      	bne.n	800147e <TIM2_IRQHandler+0x132>
		return;
	}

	if (new_coordinates) {
 80013ac:	4b3c      	ldr	r3, [pc, #240]	; (80014a0 <TIM2_IRQHandler+0x154>)
 80013ae:	781b      	ldrb	r3, [r3, #0]
 80013b0:	2b00      	cmp	r3, #0
 80013b2:	d023      	beq.n	80013fc <TIM2_IRQHandler+0xb0>
		desired_steps_x = new_steps_x;
 80013b4:	4b3b      	ldr	r3, [pc, #236]	; (80014a4 <TIM2_IRQHandler+0x158>)
 80013b6:	681b      	ldr	r3, [r3, #0]
 80013b8:	4a3b      	ldr	r2, [pc, #236]	; (80014a8 <TIM2_IRQHandler+0x15c>)
 80013ba:	6013      	str	r3, [r2, #0]
		desired_steps_y = new_steps_y;
 80013bc:	4b3b      	ldr	r3, [pc, #236]	; (80014ac <TIM2_IRQHandler+0x160>)
 80013be:	681b      	ldr	r3, [r3, #0]
 80013c0:	4a3b      	ldr	r2, [pc, #236]	; (80014b0 <TIM2_IRQHandler+0x164>)
 80013c2:	6013      	str	r3, [r2, #0]
		dx = abs(desired_steps_x - _steps_x);
 80013c4:	4b38      	ldr	r3, [pc, #224]	; (80014a8 <TIM2_IRQHandler+0x15c>)
 80013c6:	681a      	ldr	r2, [r3, #0]
 80013c8:	4b3a      	ldr	r3, [pc, #232]	; (80014b4 <TIM2_IRQHandler+0x168>)
 80013ca:	681b      	ldr	r3, [r3, #0]
 80013cc:	1ad3      	subs	r3, r2, r3
 80013ce:	2b00      	cmp	r3, #0
 80013d0:	bfb8      	it	lt
 80013d2:	425b      	neglt	r3, r3
 80013d4:	4a38      	ldr	r2, [pc, #224]	; (80014b8 <TIM2_IRQHandler+0x16c>)
 80013d6:	6013      	str	r3, [r2, #0]
		dy = -abs(desired_steps_y - _steps_y);
 80013d8:	4b35      	ldr	r3, [pc, #212]	; (80014b0 <TIM2_IRQHandler+0x164>)
 80013da:	681a      	ldr	r2, [r3, #0]
 80013dc:	4b37      	ldr	r3, [pc, #220]	; (80014bc <TIM2_IRQHandler+0x170>)
 80013de:	681b      	ldr	r3, [r3, #0]
 80013e0:	1ad3      	subs	r3, r2, r3
 80013e2:	2b00      	cmp	r3, #0
 80013e4:	bfb8      	it	lt
 80013e6:	425b      	neglt	r3, r3
 80013e8:	425b      	negs	r3, r3
 80013ea:	4a35      	ldr	r2, [pc, #212]	; (80014c0 <TIM2_IRQHandler+0x174>)
 80013ec:	6013      	str	r3, [r2, #0]
		//(_steps_x < desired_steps_x) ? set_dir_positive_x() : set_dir_negative_x();
		//(_steps_y < desired_steps_y) ? set_dir_positive_y() : set_dir_negative_y();

		//sx = (_steps_x < desired_steps_x) ? 1 : -1;
		//sy = (_steps_y < desired_steps_y) ? 1 : -1;
		error = dx + dy;
 80013ee:	4b32      	ldr	r3, [pc, #200]	; (80014b8 <TIM2_IRQHandler+0x16c>)
 80013f0:	681a      	ldr	r2, [r3, #0]
 80013f2:	4b33      	ldr	r3, [pc, #204]	; (80014c0 <TIM2_IRQHandler+0x174>)
 80013f4:	681b      	ldr	r3, [r3, #0]
 80013f6:	4413      	add	r3, r2
 80013f8:	4a32      	ldr	r2, [pc, #200]	; (80014c4 <TIM2_IRQHandler+0x178>)
 80013fa:	6013      	str	r3, [r2, #0]
	}

	if ((_steps_x == desired_steps_x) && (_steps_y == desired_steps_y)) {
 80013fc:	4b2d      	ldr	r3, [pc, #180]	; (80014b4 <TIM2_IRQHandler+0x168>)
 80013fe:	681a      	ldr	r2, [r3, #0]
 8001400:	4b29      	ldr	r3, [pc, #164]	; (80014a8 <TIM2_IRQHandler+0x15c>)
 8001402:	681b      	ldr	r3, [r3, #0]
 8001404:	429a      	cmp	r2, r3
 8001406:	d105      	bne.n	8001414 <TIM2_IRQHandler+0xc8>
 8001408:	4b2c      	ldr	r3, [pc, #176]	; (80014bc <TIM2_IRQHandler+0x170>)
 800140a:	681a      	ldr	r2, [r3, #0]
 800140c:	4b28      	ldr	r3, [pc, #160]	; (80014b0 <TIM2_IRQHandler+0x164>)
 800140e:	681b      	ldr	r3, [r3, #0]
 8001410:	429a      	cmp	r2, r3
 8001412:	d036      	beq.n	8001482 <TIM2_IRQHandler+0x136>
		return;
	}
	e2 = 2 * error;
 8001414:	4b2b      	ldr	r3, [pc, #172]	; (80014c4 <TIM2_IRQHandler+0x178>)
 8001416:	681b      	ldr	r3, [r3, #0]
 8001418:	005b      	lsls	r3, r3, #1
 800141a:	4a2b      	ldr	r2, [pc, #172]	; (80014c8 <TIM2_IRQHandler+0x17c>)
 800141c:	6013      	str	r3, [r2, #0]

	if (e2 >= dy) {
 800141e:	4b2a      	ldr	r3, [pc, #168]	; (80014c8 <TIM2_IRQHandler+0x17c>)
 8001420:	681a      	ldr	r2, [r3, #0]
 8001422:	4b27      	ldr	r3, [pc, #156]	; (80014c0 <TIM2_IRQHandler+0x174>)
 8001424:	681b      	ldr	r3, [r3, #0]
 8001426:	429a      	cmp	r2, r3
 8001428:	db0f      	blt.n	800144a <TIM2_IRQHandler+0xfe>
	  if (_steps_x == desired_steps_x) {
 800142a:	4b22      	ldr	r3, [pc, #136]	; (80014b4 <TIM2_IRQHandler+0x168>)
 800142c:	681a      	ldr	r2, [r3, #0]
 800142e:	4b1e      	ldr	r3, [pc, #120]	; (80014a8 <TIM2_IRQHandler+0x15c>)
 8001430:	681b      	ldr	r3, [r3, #0]
 8001432:	429a      	cmp	r2, r3
 8001434:	d027      	beq.n	8001486 <TIM2_IRQHandler+0x13a>
		  return;
	  }
	  error += dy;
 8001436:	4b23      	ldr	r3, [pc, #140]	; (80014c4 <TIM2_IRQHandler+0x178>)
 8001438:	681a      	ldr	r2, [r3, #0]
 800143a:	4b21      	ldr	r3, [pc, #132]	; (80014c0 <TIM2_IRQHandler+0x174>)
 800143c:	681b      	ldr	r3, [r3, #0]
 800143e:	4413      	add	r3, r2
 8001440:	4a20      	ldr	r2, [pc, #128]	; (80014c4 <TIM2_IRQHandler+0x178>)
 8001442:	6013      	str	r3, [r2, #0]
	  //_steps_x += sx;
	  FLAG_X = true;
 8001444:	4b13      	ldr	r3, [pc, #76]	; (8001494 <TIM2_IRQHandler+0x148>)
 8001446:	2201      	movs	r2, #1
 8001448:	701a      	strb	r2, [r3, #0]
	}

	if (e2 <= dx) {
 800144a:	4b1f      	ldr	r3, [pc, #124]	; (80014c8 <TIM2_IRQHandler+0x17c>)
 800144c:	681a      	ldr	r2, [r3, #0]
 800144e:	4b1a      	ldr	r3, [pc, #104]	; (80014b8 <TIM2_IRQHandler+0x16c>)
 8001450:	681b      	ldr	r3, [r3, #0]
 8001452:	429a      	cmp	r2, r3
 8001454:	dc0f      	bgt.n	8001476 <TIM2_IRQHandler+0x12a>
	  if (_steps_y == desired_steps_y) {
 8001456:	4b19      	ldr	r3, [pc, #100]	; (80014bc <TIM2_IRQHandler+0x170>)
 8001458:	681a      	ldr	r2, [r3, #0]
 800145a:	4b15      	ldr	r3, [pc, #84]	; (80014b0 <TIM2_IRQHandler+0x164>)
 800145c:	681b      	ldr	r3, [r3, #0]
 800145e:	429a      	cmp	r2, r3
 8001460:	d013      	beq.n	800148a <TIM2_IRQHandler+0x13e>
		  return;
	  }
	  error += dx;
 8001462:	4b18      	ldr	r3, [pc, #96]	; (80014c4 <TIM2_IRQHandler+0x178>)
 8001464:	681a      	ldr	r2, [r3, #0]
 8001466:	4b14      	ldr	r3, [pc, #80]	; (80014b8 <TIM2_IRQHandler+0x16c>)
 8001468:	681b      	ldr	r3, [r3, #0]
 800146a:	4413      	add	r3, r2
 800146c:	4a15      	ldr	r2, [pc, #84]	; (80014c4 <TIM2_IRQHandler+0x178>)
 800146e:	6013      	str	r3, [r2, #0]
	  //_steps_y += sy;
	  FLAG_Y = true;
 8001470:	4b09      	ldr	r3, [pc, #36]	; (8001498 <TIM2_IRQHandler+0x14c>)
 8001472:	2201      	movs	r2, #1
 8001474:	701a      	strb	r2, [r3, #0]
	}

	calculation_done = true;
 8001476:	4b09      	ldr	r3, [pc, #36]	; (800149c <TIM2_IRQHandler+0x150>)
 8001478:	2201      	movs	r2, #1
 800147a:	701a      	strb	r2, [r3, #0]
 800147c:	e006      	b.n	800148c <TIM2_IRQHandler+0x140>
		return;
 800147e:	bf00      	nop
 8001480:	e004      	b.n	800148c <TIM2_IRQHandler+0x140>
		return;
 8001482:	bf00      	nop
 8001484:	e002      	b.n	800148c <TIM2_IRQHandler+0x140>
		  return;
 8001486:	bf00      	nop
 8001488:	e000      	b.n	800148c <TIM2_IRQHandler+0x140>
		  return;
 800148a:	bf00      	nop
	/* USER CODE END TIM2_IRQn 1 */
}
 800148c:	bd80      	pop	{r7, pc}
 800148e:	bf00      	nop
 8001490:	20000040 	.word	0x20000040
 8001494:	20000044 	.word	0x20000044
 8001498:	20000045 	.word	0x20000045
 800149c:	20000046 	.word	0x20000046
 80014a0:	2000003c 	.word	0x2000003c
 80014a4:	20000034 	.word	0x20000034
 80014a8:	20000048 	.word	0x20000048
 80014ac:	20000038 	.word	0x20000038
 80014b0:	2000004c 	.word	0x2000004c
 80014b4:	2000002c 	.word	0x2000002c
 80014b8:	20000050 	.word	0x20000050
 80014bc:	20000030 	.word	0x20000030
 80014c0:	20000054 	.word	0x20000054
 80014c4:	20000058 	.word	0x20000058
 80014c8:	2000005c 	.word	0x2000005c

080014cc <EXTI15_10_IRQHandler>:

/**
  * @brief This function handles EXTI line[15:10] interrupts.
  */
void EXTI15_10_IRQHandler(void)
{
 80014cc:	b580      	push	{r7, lr}
 80014ce:	af00      	add	r7, sp, #0
  /* USER CODE BEGIN EXTI15_10_IRQn 0 */

  /* USER CODE END EXTI15_10_IRQn 0 */
  if (LL_EXTI_IsActiveFlag_0_31(LL_EXTI_LINE_13) != RESET)
 80014d0:	f44f 5000 	mov.w	r0, #8192	; 0x2000
 80014d4:	f7ff fecc 	bl	8001270 <LL_EXTI_IsActiveFlag_0_31>
 80014d8:	4603      	mov	r3, r0
 80014da:	2b00      	cmp	r3, #0
 80014dc:	d003      	beq.n	80014e6 <EXTI15_10_IRQHandler+0x1a>
  {
    LL_EXTI_ClearFlag_0_31(LL_EXTI_LINE_13);
 80014de:	f44f 5000 	mov.w	r0, #8192	; 0x2000
 80014e2:	f7ff fedb 	bl	800129c <LL_EXTI_ClearFlag_0_31>
    /* USER CODE BEGIN LL_EXTI_LINE_13 */

    /* USER CODE END LL_EXTI_LINE_13 */
  }
  if (LL_EXTI_IsActiveFlag_0_31(LL_EXTI_LINE_15) != RESET)
 80014e6:	f44f 4000 	mov.w	r0, #32768	; 0x8000
 80014ea:	f7ff fec1 	bl	8001270 <LL_EXTI_IsActiveFlag_0_31>
 80014ee:	4603      	mov	r3, r0
 80014f0:	2b00      	cmp	r3, #0
 80014f2:	d005      	beq.n	8001500 <EXTI15_10_IRQHandler+0x34>
  {
    LL_EXTI_ClearFlag_0_31(LL_EXTI_LINE_15);
 80014f4:	f44f 4000 	mov.w	r0, #32768	; 0x8000
 80014f8:	f7ff fed0 	bl	800129c <LL_EXTI_ClearFlag_0_31>
    /* USER CODE BEGIN LL_EXTI_LINE_15 */
    handle_endstop_y();
 80014fc:	f7ff fe5c 	bl	80011b8 <handle_endstop_y>
    /* USER CODE END LL_EXTI_LINE_15 */
  }
  /* USER CODE BEGIN EXTI15_10_IRQn 1 */

  /* USER CODE END EXTI15_10_IRQn 1 */
}
 8001500:	bf00      	nop
 8001502:	bd80      	pop	{r7, pc}

08001504 <SystemInit>:
  * @brief  Setup the microcontroller system
  * @param  None
  * @retval None
  */
void SystemInit(void)
{
 8001504:	b480      	push	{r7}
 8001506:	af00      	add	r7, sp, #0
/* FPU settings --------------------------------------------------------------*/
#if (__FPU_PRESENT == 1) && (__FPU_USED == 1)
  SCB->CPACR |= ((3UL << 10*2)|(3UL << 11*2));  /* set CP10 and CP11 Full Access */
 8001508:	4b06      	ldr	r3, [pc, #24]	; (8001524 <SystemInit+0x20>)
 800150a:	f8d3 3088 	ldr.w	r3, [r3, #136]	; 0x88
 800150e:	4a05      	ldr	r2, [pc, #20]	; (8001524 <SystemInit+0x20>)
 8001510:	f443 0370 	orr.w	r3, r3, #15728640	; 0xf00000
 8001514:	f8c2 3088 	str.w	r3, [r2, #136]	; 0x88

  /* Configure the Vector Table location -------------------------------------*/
#if defined(USER_VECT_TAB_ADDRESS)
  SCB->VTOR = VECT_TAB_BASE_ADDRESS | VECT_TAB_OFFSET; /* Vector Table Relocation in Internal SRAM */
#endif /* USER_VECT_TAB_ADDRESS */
}
 8001518:	bf00      	nop
 800151a:	46bd      	mov	sp, r7
 800151c:	f85d 7b04 	ldr.w	r7, [sp], #4
 8001520:	4770      	bx	lr
 8001522:	bf00      	nop
 8001524:	e000ed00 	.word	0xe000ed00

08001528 <Reset_Handler>:

    .section	.text.Reset_Handler
	.weak	Reset_Handler
	.type	Reset_Handler, %function
Reset_Handler:
  ldr   sp, =_estack    /* Atollic update: set stack pointer */
 8001528:	f8df d034 	ldr.w	sp, [pc, #52]	; 8001560 <LoopForever+0x2>

/* Copy the data segment initializers from flash to SRAM */
  ldr r0, =_sdata
 800152c:	480d      	ldr	r0, [pc, #52]	; (8001564 <LoopForever+0x6>)
  ldr r1, =_edata
 800152e:	490e      	ldr	r1, [pc, #56]	; (8001568 <LoopForever+0xa>)
  ldr r2, =_sidata
 8001530:	4a0e      	ldr	r2, [pc, #56]	; (800156c <LoopForever+0xe>)
  movs r3, #0
 8001532:	2300      	movs	r3, #0
  b LoopCopyDataInit
 8001534:	e002      	b.n	800153c <LoopCopyDataInit>

08001536 <CopyDataInit>:

CopyDataInit:
  ldr r4, [r2, r3]
 8001536:	58d4      	ldr	r4, [r2, r3]
  str r4, [r0, r3]
 8001538:	50c4      	str	r4, [r0, r3]
  adds r3, r3, #4
 800153a:	3304      	adds	r3, #4

0800153c <LoopCopyDataInit>:

LoopCopyDataInit:
  adds r4, r0, r3
 800153c:	18c4      	adds	r4, r0, r3
  cmp r4, r1
 800153e:	428c      	cmp	r4, r1
  bcc CopyDataInit
 8001540:	d3f9      	bcc.n	8001536 <CopyDataInit>
  
/* Zero fill the bss segment. */
  ldr r2, =_sbss
 8001542:	4a0b      	ldr	r2, [pc, #44]	; (8001570 <LoopForever+0x12>)
  ldr r4, =_ebss
 8001544:	4c0b      	ldr	r4, [pc, #44]	; (8001574 <LoopForever+0x16>)
  movs r3, #0
 8001546:	2300      	movs	r3, #0
  b LoopFillZerobss
 8001548:	e001      	b.n	800154e <LoopFillZerobss>

0800154a <FillZerobss>:

FillZerobss:
  str  r3, [r2]
 800154a:	6013      	str	r3, [r2, #0]
  adds r2, r2, #4
 800154c:	3204      	adds	r2, #4

0800154e <LoopFillZerobss>:

LoopFillZerobss:
  cmp r2, r4
 800154e:	42a2      	cmp	r2, r4
  bcc FillZerobss
 8001550:	d3fb      	bcc.n	800154a <FillZerobss>

/* Call the clock system intitialization function.*/
    bl  SystemInit
 8001552:	f7ff ffd7 	bl	8001504 <SystemInit>
/* Call static constructors */
    bl __libc_init_array
 8001556:	f001 fac5 	bl	8002ae4 <__libc_init_array>
/* Call the application's entry point.*/
	bl	main
 800155a:	f7ff face 	bl	8000afa <main>

0800155e <LoopForever>:

LoopForever:
    b LoopForever
 800155e:	e7fe      	b.n	800155e <LoopForever>
  ldr   sp, =_estack    /* Atollic update: set stack pointer */
 8001560:	20004000 	.word	0x20004000
  ldr r0, =_sdata
 8001564:	20000000 	.word	0x20000000
  ldr r1, =_edata
 8001568:	2000000c 	.word	0x2000000c
  ldr r2, =_sidata
 800156c:	08002b8c 	.word	0x08002b8c
  ldr r2, =_sbss
 8001570:	2000000c 	.word	0x2000000c
  ldr r4, =_ebss
 8001574:	20000060 	.word	0x20000060

08001578 <ADC1_IRQHandler>:
 * @retval : None
*/
    .section	.text.Default_Handler,"ax",%progbits
Default_Handler:
Infinite_Loop:
	b	Infinite_Loop
 8001578:	e7fe      	b.n	8001578 <ADC1_IRQHandler>
	...

0800157c <LL_EXTI_EnableIT_0_31>:
{
 800157c:	b480      	push	{r7}
 800157e:	b083      	sub	sp, #12
 8001580:	af00      	add	r7, sp, #0
 8001582:	6078      	str	r0, [r7, #4]
  SET_BIT(EXTI->IMR, ExtiLine);
 8001584:	4b05      	ldr	r3, [pc, #20]	; (800159c <LL_EXTI_EnableIT_0_31+0x20>)
 8001586:	681a      	ldr	r2, [r3, #0]
 8001588:	4904      	ldr	r1, [pc, #16]	; (800159c <LL_EXTI_EnableIT_0_31+0x20>)
 800158a:	687b      	ldr	r3, [r7, #4]
 800158c:	4313      	orrs	r3, r2
 800158e:	600b      	str	r3, [r1, #0]
}
 8001590:	bf00      	nop
 8001592:	370c      	adds	r7, #12
 8001594:	46bd      	mov	sp, r7
 8001596:	f85d 7b04 	ldr.w	r7, [sp], #4
 800159a:	4770      	bx	lr
 800159c:	40010400 	.word	0x40010400

080015a0 <LL_EXTI_EnableIT_32_63>:
{
 80015a0:	b480      	push	{r7}
 80015a2:	b083      	sub	sp, #12
 80015a4:	af00      	add	r7, sp, #0
 80015a6:	6078      	str	r0, [r7, #4]
  SET_BIT(EXTI->IMR2, ExtiLine);
 80015a8:	4b05      	ldr	r3, [pc, #20]	; (80015c0 <LL_EXTI_EnableIT_32_63+0x20>)
 80015aa:	6a1a      	ldr	r2, [r3, #32]
 80015ac:	4904      	ldr	r1, [pc, #16]	; (80015c0 <LL_EXTI_EnableIT_32_63+0x20>)
 80015ae:	687b      	ldr	r3, [r7, #4]
 80015b0:	4313      	orrs	r3, r2
 80015b2:	620b      	str	r3, [r1, #32]
}
 80015b4:	bf00      	nop
 80015b6:	370c      	adds	r7, #12
 80015b8:	46bd      	mov	sp, r7
 80015ba:	f85d 7b04 	ldr.w	r7, [sp], #4
 80015be:	4770      	bx	lr
 80015c0:	40010400 	.word	0x40010400

080015c4 <LL_EXTI_DisableIT_0_31>:
{
 80015c4:	b480      	push	{r7}
 80015c6:	b083      	sub	sp, #12
 80015c8:	af00      	add	r7, sp, #0
 80015ca:	6078      	str	r0, [r7, #4]
  CLEAR_BIT(EXTI->IMR, ExtiLine);
 80015cc:	4b06      	ldr	r3, [pc, #24]	; (80015e8 <LL_EXTI_DisableIT_0_31+0x24>)
 80015ce:	681a      	ldr	r2, [r3, #0]
 80015d0:	687b      	ldr	r3, [r7, #4]
 80015d2:	43db      	mvns	r3, r3
 80015d4:	4904      	ldr	r1, [pc, #16]	; (80015e8 <LL_EXTI_DisableIT_0_31+0x24>)
 80015d6:	4013      	ands	r3, r2
 80015d8:	600b      	str	r3, [r1, #0]
}
 80015da:	bf00      	nop
 80015dc:	370c      	adds	r7, #12
 80015de:	46bd      	mov	sp, r7
 80015e0:	f85d 7b04 	ldr.w	r7, [sp], #4
 80015e4:	4770      	bx	lr
 80015e6:	bf00      	nop
 80015e8:	40010400 	.word	0x40010400

080015ec <LL_EXTI_DisableIT_32_63>:
{
 80015ec:	b480      	push	{r7}
 80015ee:	b083      	sub	sp, #12
 80015f0:	af00      	add	r7, sp, #0
 80015f2:	6078      	str	r0, [r7, #4]
  CLEAR_BIT(EXTI->IMR2, ExtiLine);
 80015f4:	4b06      	ldr	r3, [pc, #24]	; (8001610 <LL_EXTI_DisableIT_32_63+0x24>)
 80015f6:	6a1a      	ldr	r2, [r3, #32]
 80015f8:	687b      	ldr	r3, [r7, #4]
 80015fa:	43db      	mvns	r3, r3
 80015fc:	4904      	ldr	r1, [pc, #16]	; (8001610 <LL_EXTI_DisableIT_32_63+0x24>)
 80015fe:	4013      	ands	r3, r2
 8001600:	620b      	str	r3, [r1, #32]
}
 8001602:	bf00      	nop
 8001604:	370c      	adds	r7, #12
 8001606:	46bd      	mov	sp, r7
 8001608:	f85d 7b04 	ldr.w	r7, [sp], #4
 800160c:	4770      	bx	lr
 800160e:	bf00      	nop
 8001610:	40010400 	.word	0x40010400

08001614 <LL_EXTI_EnableEvent_0_31>:
{
 8001614:	b480      	push	{r7}
 8001616:	b083      	sub	sp, #12
 8001618:	af00      	add	r7, sp, #0
 800161a:	6078      	str	r0, [r7, #4]
  SET_BIT(EXTI->EMR, ExtiLine);
 800161c:	4b05      	ldr	r3, [pc, #20]	; (8001634 <LL_EXTI_EnableEvent_0_31+0x20>)
 800161e:	685a      	ldr	r2, [r3, #4]
 8001620:	4904      	ldr	r1, [pc, #16]	; (8001634 <LL_EXTI_EnableEvent_0_31+0x20>)
 8001622:	687b      	ldr	r3, [r7, #4]
 8001624:	4313      	orrs	r3, r2
 8001626:	604b      	str	r3, [r1, #4]
}
 8001628:	bf00      	nop
 800162a:	370c      	adds	r7, #12
 800162c:	46bd      	mov	sp, r7
 800162e:	f85d 7b04 	ldr.w	r7, [sp], #4
 8001632:	4770      	bx	lr
 8001634:	40010400 	.word	0x40010400

08001638 <LL_EXTI_EnableEvent_32_63>:
{
 8001638:	b480      	push	{r7}
 800163a:	b083      	sub	sp, #12
 800163c:	af00      	add	r7, sp, #0
 800163e:	6078      	str	r0, [r7, #4]
  SET_BIT(EXTI->EMR2, ExtiLine);
 8001640:	4b05      	ldr	r3, [pc, #20]	; (8001658 <LL_EXTI_EnableEvent_32_63+0x20>)
 8001642:	6a5a      	ldr	r2, [r3, #36]	; 0x24
 8001644:	4904      	ldr	r1, [pc, #16]	; (8001658 <LL_EXTI_EnableEvent_32_63+0x20>)
 8001646:	687b      	ldr	r3, [r7, #4]
 8001648:	4313      	orrs	r3, r2
 800164a:	624b      	str	r3, [r1, #36]	; 0x24
}
 800164c:	bf00      	nop
 800164e:	370c      	adds	r7, #12
 8001650:	46bd      	mov	sp, r7
 8001652:	f85d 7b04 	ldr.w	r7, [sp], #4
 8001656:	4770      	bx	lr
 8001658:	40010400 	.word	0x40010400

0800165c <LL_EXTI_DisableEvent_0_31>:
{
 800165c:	b480      	push	{r7}
 800165e:	b083      	sub	sp, #12
 8001660:	af00      	add	r7, sp, #0
 8001662:	6078      	str	r0, [r7, #4]
  CLEAR_BIT(EXTI->EMR, ExtiLine);
 8001664:	4b06      	ldr	r3, [pc, #24]	; (8001680 <LL_EXTI_DisableEvent_0_31+0x24>)
 8001666:	685a      	ldr	r2, [r3, #4]
 8001668:	687b      	ldr	r3, [r7, #4]
 800166a:	43db      	mvns	r3, r3
 800166c:	4904      	ldr	r1, [pc, #16]	; (8001680 <LL_EXTI_DisableEvent_0_31+0x24>)
 800166e:	4013      	ands	r3, r2
 8001670:	604b      	str	r3, [r1, #4]
}
 8001672:	bf00      	nop
 8001674:	370c      	adds	r7, #12
 8001676:	46bd      	mov	sp, r7
 8001678:	f85d 7b04 	ldr.w	r7, [sp], #4
 800167c:	4770      	bx	lr
 800167e:	bf00      	nop
 8001680:	40010400 	.word	0x40010400

08001684 <LL_EXTI_DisableEvent_32_63>:
{
 8001684:	b480      	push	{r7}
 8001686:	b083      	sub	sp, #12
 8001688:	af00      	add	r7, sp, #0
 800168a:	6078      	str	r0, [r7, #4]
  CLEAR_BIT(EXTI->EMR2, ExtiLine);
 800168c:	4b06      	ldr	r3, [pc, #24]	; (80016a8 <LL_EXTI_DisableEvent_32_63+0x24>)
 800168e:	6a5a      	ldr	r2, [r3, #36]	; 0x24
 8001690:	687b      	ldr	r3, [r7, #4]
 8001692:	43db      	mvns	r3, r3
 8001694:	4904      	ldr	r1, [pc, #16]	; (80016a8 <LL_EXTI_DisableEvent_32_63+0x24>)
 8001696:	4013      	ands	r3, r2
 8001698:	624b      	str	r3, [r1, #36]	; 0x24
}
 800169a:	bf00      	nop
 800169c:	370c      	adds	r7, #12
 800169e:	46bd      	mov	sp, r7
 80016a0:	f85d 7b04 	ldr.w	r7, [sp], #4
 80016a4:	4770      	bx	lr
 80016a6:	bf00      	nop
 80016a8:	40010400 	.word	0x40010400

080016ac <LL_EXTI_EnableRisingTrig_0_31>:
{
 80016ac:	b480      	push	{r7}
 80016ae:	b083      	sub	sp, #12
 80016b0:	af00      	add	r7, sp, #0
 80016b2:	6078      	str	r0, [r7, #4]
  SET_BIT(EXTI->RTSR, ExtiLine);
 80016b4:	4b05      	ldr	r3, [pc, #20]	; (80016cc <LL_EXTI_EnableRisingTrig_0_31+0x20>)
 80016b6:	689a      	ldr	r2, [r3, #8]
 80016b8:	4904      	ldr	r1, [pc, #16]	; (80016cc <LL_EXTI_EnableRisingTrig_0_31+0x20>)
 80016ba:	687b      	ldr	r3, [r7, #4]
 80016bc:	4313      	orrs	r3, r2
 80016be:	608b      	str	r3, [r1, #8]
}
 80016c0:	bf00      	nop
 80016c2:	370c      	adds	r7, #12
 80016c4:	46bd      	mov	sp, r7
 80016c6:	f85d 7b04 	ldr.w	r7, [sp], #4
 80016ca:	4770      	bx	lr
 80016cc:	40010400 	.word	0x40010400

080016d0 <LL_EXTI_EnableRisingTrig_32_63>:
{
 80016d0:	b480      	push	{r7}
 80016d2:	b083      	sub	sp, #12
 80016d4:	af00      	add	r7, sp, #0
 80016d6:	6078      	str	r0, [r7, #4]
  SET_BIT(EXTI->RTSR2, ExtiLine);
 80016d8:	4b05      	ldr	r3, [pc, #20]	; (80016f0 <LL_EXTI_EnableRisingTrig_32_63+0x20>)
 80016da:	6a9a      	ldr	r2, [r3, #40]	; 0x28
 80016dc:	4904      	ldr	r1, [pc, #16]	; (80016f0 <LL_EXTI_EnableRisingTrig_32_63+0x20>)
 80016de:	687b      	ldr	r3, [r7, #4]
 80016e0:	4313      	orrs	r3, r2
 80016e2:	628b      	str	r3, [r1, #40]	; 0x28
}
 80016e4:	bf00      	nop
 80016e6:	370c      	adds	r7, #12
 80016e8:	46bd      	mov	sp, r7
 80016ea:	f85d 7b04 	ldr.w	r7, [sp], #4
 80016ee:	4770      	bx	lr
 80016f0:	40010400 	.word	0x40010400

080016f4 <LL_EXTI_DisableRisingTrig_0_31>:
{
 80016f4:	b480      	push	{r7}
 80016f6:	b083      	sub	sp, #12
 80016f8:	af00      	add	r7, sp, #0
 80016fa:	6078      	str	r0, [r7, #4]
  CLEAR_BIT(EXTI->RTSR, ExtiLine);
 80016fc:	4b06      	ldr	r3, [pc, #24]	; (8001718 <LL_EXTI_DisableRisingTrig_0_31+0x24>)
 80016fe:	689a      	ldr	r2, [r3, #8]
 8001700:	687b      	ldr	r3, [r7, #4]
 8001702:	43db      	mvns	r3, r3
 8001704:	4904      	ldr	r1, [pc, #16]	; (8001718 <LL_EXTI_DisableRisingTrig_0_31+0x24>)
 8001706:	4013      	ands	r3, r2
 8001708:	608b      	str	r3, [r1, #8]
}
 800170a:	bf00      	nop
 800170c:	370c      	adds	r7, #12
 800170e:	46bd      	mov	sp, r7
 8001710:	f85d 7b04 	ldr.w	r7, [sp], #4
 8001714:	4770      	bx	lr
 8001716:	bf00      	nop
 8001718:	40010400 	.word	0x40010400

0800171c <LL_EXTI_DisableRisingTrig_32_63>:
{
 800171c:	b480      	push	{r7}
 800171e:	b083      	sub	sp, #12
 8001720:	af00      	add	r7, sp, #0
 8001722:	6078      	str	r0, [r7, #4]
  CLEAR_BIT(EXTI->RTSR2, ExtiLine);
 8001724:	4b06      	ldr	r3, [pc, #24]	; (8001740 <LL_EXTI_DisableRisingTrig_32_63+0x24>)
 8001726:	6a9a      	ldr	r2, [r3, #40]	; 0x28
 8001728:	687b      	ldr	r3, [r7, #4]
 800172a:	43db      	mvns	r3, r3
 800172c:	4904      	ldr	r1, [pc, #16]	; (8001740 <LL_EXTI_DisableRisingTrig_32_63+0x24>)
 800172e:	4013      	ands	r3, r2
 8001730:	628b      	str	r3, [r1, #40]	; 0x28
}
 8001732:	bf00      	nop
 8001734:	370c      	adds	r7, #12
 8001736:	46bd      	mov	sp, r7
 8001738:	f85d 7b04 	ldr.w	r7, [sp], #4
 800173c:	4770      	bx	lr
 800173e:	bf00      	nop
 8001740:	40010400 	.word	0x40010400

08001744 <LL_EXTI_EnableFallingTrig_0_31>:
{
 8001744:	b480      	push	{r7}
 8001746:	b083      	sub	sp, #12
 8001748:	af00      	add	r7, sp, #0
 800174a:	6078      	str	r0, [r7, #4]
  SET_BIT(EXTI->FTSR, ExtiLine);
 800174c:	4b05      	ldr	r3, [pc, #20]	; (8001764 <LL_EXTI_EnableFallingTrig_0_31+0x20>)
 800174e:	68da      	ldr	r2, [r3, #12]
 8001750:	4904      	ldr	r1, [pc, #16]	; (8001764 <LL_EXTI_EnableFallingTrig_0_31+0x20>)
 8001752:	687b      	ldr	r3, [r7, #4]
 8001754:	4313      	orrs	r3, r2
 8001756:	60cb      	str	r3, [r1, #12]
}
 8001758:	bf00      	nop
 800175a:	370c      	adds	r7, #12
 800175c:	46bd      	mov	sp, r7
 800175e:	f85d 7b04 	ldr.w	r7, [sp], #4
 8001762:	4770      	bx	lr
 8001764:	40010400 	.word	0x40010400

08001768 <LL_EXTI_EnableFallingTrig_32_63>:
{
 8001768:	b480      	push	{r7}
 800176a:	b083      	sub	sp, #12
 800176c:	af00      	add	r7, sp, #0
 800176e:	6078      	str	r0, [r7, #4]
  SET_BIT(EXTI->FTSR2, ExtiLine);
 8001770:	4b05      	ldr	r3, [pc, #20]	; (8001788 <LL_EXTI_EnableFallingTrig_32_63+0x20>)
 8001772:	6ada      	ldr	r2, [r3, #44]	; 0x2c
 8001774:	4904      	ldr	r1, [pc, #16]	; (8001788 <LL_EXTI_EnableFallingTrig_32_63+0x20>)
 8001776:	687b      	ldr	r3, [r7, #4]
 8001778:	4313      	orrs	r3, r2
 800177a:	62cb      	str	r3, [r1, #44]	; 0x2c
}
 800177c:	bf00      	nop
 800177e:	370c      	adds	r7, #12
 8001780:	46bd      	mov	sp, r7
 8001782:	f85d 7b04 	ldr.w	r7, [sp], #4
 8001786:	4770      	bx	lr
 8001788:	40010400 	.word	0x40010400

0800178c <LL_EXTI_DisableFallingTrig_0_31>:
{
 800178c:	b480      	push	{r7}
 800178e:	b083      	sub	sp, #12
 8001790:	af00      	add	r7, sp, #0
 8001792:	6078      	str	r0, [r7, #4]
  CLEAR_BIT(EXTI->FTSR, ExtiLine);
 8001794:	4b06      	ldr	r3, [pc, #24]	; (80017b0 <LL_EXTI_DisableFallingTrig_0_31+0x24>)
 8001796:	68da      	ldr	r2, [r3, #12]
 8001798:	687b      	ldr	r3, [r7, #4]
 800179a:	43db      	mvns	r3, r3
 800179c:	4904      	ldr	r1, [pc, #16]	; (80017b0 <LL_EXTI_DisableFallingTrig_0_31+0x24>)
 800179e:	4013      	ands	r3, r2
 80017a0:	60cb      	str	r3, [r1, #12]
}
 80017a2:	bf00      	nop
 80017a4:	370c      	adds	r7, #12
 80017a6:	46bd      	mov	sp, r7
 80017a8:	f85d 7b04 	ldr.w	r7, [sp], #4
 80017ac:	4770      	bx	lr
 80017ae:	bf00      	nop
 80017b0:	40010400 	.word	0x40010400

080017b4 <LL_EXTI_DisableFallingTrig_32_63>:
{
 80017b4:	b480      	push	{r7}
 80017b6:	b083      	sub	sp, #12
 80017b8:	af00      	add	r7, sp, #0
 80017ba:	6078      	str	r0, [r7, #4]
  CLEAR_BIT(EXTI->FTSR2, ExtiLine);
 80017bc:	4b06      	ldr	r3, [pc, #24]	; (80017d8 <LL_EXTI_DisableFallingTrig_32_63+0x24>)
 80017be:	6ada      	ldr	r2, [r3, #44]	; 0x2c
 80017c0:	687b      	ldr	r3, [r7, #4]
 80017c2:	43db      	mvns	r3, r3
 80017c4:	4904      	ldr	r1, [pc, #16]	; (80017d8 <LL_EXTI_DisableFallingTrig_32_63+0x24>)
 80017c6:	4013      	ands	r3, r2
 80017c8:	62cb      	str	r3, [r1, #44]	; 0x2c
}
 80017ca:	bf00      	nop
 80017cc:	370c      	adds	r7, #12
 80017ce:	46bd      	mov	sp, r7
 80017d0:	f85d 7b04 	ldr.w	r7, [sp], #4
 80017d4:	4770      	bx	lr
 80017d6:	bf00      	nop
 80017d8:	40010400 	.word	0x40010400

080017dc <LL_EXTI_Init>:
  * @retval An ErrorStatus enumeration value:
  *          - SUCCESS: EXTI registers are initialized
  *          - ERROR: not applicable
  */
uint32_t LL_EXTI_Init(LL_EXTI_InitTypeDef *EXTI_InitStruct)
{
 80017dc:	b580      	push	{r7, lr}
 80017de:	b084      	sub	sp, #16
 80017e0:	af00      	add	r7, sp, #0
 80017e2:	6078      	str	r0, [r7, #4]
  ErrorStatus status = SUCCESS;
 80017e4:	2300      	movs	r3, #0
 80017e6:	73fb      	strb	r3, [r7, #15]
#endif
  assert_param(IS_FUNCTIONAL_STATE(EXTI_InitStruct->LineCommand));
  assert_param(IS_LL_EXTI_MODE(EXTI_InitStruct->Mode));

  /* ENABLE LineCommand */
  if (EXTI_InitStruct->LineCommand != DISABLE)
 80017e8:	687b      	ldr	r3, [r7, #4]
 80017ea:	7a1b      	ldrb	r3, [r3, #8]
 80017ec:	2b00      	cmp	r3, #0
 80017ee:	f000 80cd 	beq.w	800198c <LL_EXTI_Init+0x1b0>
  {
    assert_param(IS_LL_EXTI_TRIGGER(EXTI_InitStruct->Trigger));

    /* Configure EXTI Lines in range from 0 to 31 */
    if (EXTI_InitStruct->Line_0_31 != LL_EXTI_LINE_NONE)
 80017f2:	687b      	ldr	r3, [r7, #4]
 80017f4:	681b      	ldr	r3, [r3, #0]
 80017f6:	2b00      	cmp	r3, #0
 80017f8:	d061      	beq.n	80018be <LL_EXTI_Init+0xe2>
    {
      switch (EXTI_InitStruct->Mode)
 80017fa:	687b      	ldr	r3, [r7, #4]
 80017fc:	7a5b      	ldrb	r3, [r3, #9]
 80017fe:	2b02      	cmp	r3, #2
 8001800:	d01c      	beq.n	800183c <LL_EXTI_Init+0x60>
 8001802:	2b02      	cmp	r3, #2
 8001804:	dc25      	bgt.n	8001852 <LL_EXTI_Init+0x76>
 8001806:	2b00      	cmp	r3, #0
 8001808:	d002      	beq.n	8001810 <LL_EXTI_Init+0x34>
 800180a:	2b01      	cmp	r3, #1
 800180c:	d00b      	beq.n	8001826 <LL_EXTI_Init+0x4a>
 800180e:	e020      	b.n	8001852 <LL_EXTI_Init+0x76>
      {
        case LL_EXTI_MODE_IT:
          /* First Disable Event on provided Lines */
          LL_EXTI_DisableEvent_0_31(EXTI_InitStruct->Line_0_31);
 8001810:	687b      	ldr	r3, [r7, #4]
 8001812:	681b      	ldr	r3, [r3, #0]
 8001814:	4618      	mov	r0, r3
 8001816:	f7ff ff21 	bl	800165c <LL_EXTI_DisableEvent_0_31>
          /* Then Enable IT on provided Lines */
          LL_EXTI_EnableIT_0_31(EXTI_InitStruct->Line_0_31);
 800181a:	687b      	ldr	r3, [r7, #4]
 800181c:	681b      	ldr	r3, [r3, #0]
 800181e:	4618      	mov	r0, r3
 8001820:	f7ff feac 	bl	800157c <LL_EXTI_EnableIT_0_31>
          break;
 8001824:	e018      	b.n	8001858 <LL_EXTI_Init+0x7c>
        case LL_EXTI_MODE_EVENT:
          /* First Disable IT on provided Lines */
          LL_EXTI_DisableIT_0_31(EXTI_InitStruct->Line_0_31);
 8001826:	687b      	ldr	r3, [r7, #4]
 8001828:	681b      	ldr	r3, [r3, #0]
 800182a:	4618      	mov	r0, r3
 800182c:	f7ff feca 	bl	80015c4 <LL_EXTI_DisableIT_0_31>
          /* Then Enable Event on provided Lines */
          LL_EXTI_EnableEvent_0_31(EXTI_InitStruct->Line_0_31);
 8001830:	687b      	ldr	r3, [r7, #4]
 8001832:	681b      	ldr	r3, [r3, #0]
 8001834:	4618      	mov	r0, r3
 8001836:	f7ff feed 	bl	8001614 <LL_EXTI_EnableEvent_0_31>
          break;
 800183a:	e00d      	b.n	8001858 <LL_EXTI_Init+0x7c>
        case LL_EXTI_MODE_IT_EVENT:
          /* Directly Enable IT & Event on provided Lines */
          LL_EXTI_EnableIT_0_31(EXTI_InitStruct->Line_0_31);
 800183c:	687b      	ldr	r3, [r7, #4]
 800183e:	681b      	ldr	r3, [r3, #0]
 8001840:	4618      	mov	r0, r3
 8001842:	f7ff fe9b 	bl	800157c <LL_EXTI_EnableIT_0_31>
          LL_EXTI_EnableEvent_0_31(EXTI_InitStruct->Line_0_31);
 8001846:	687b      	ldr	r3, [r7, #4]
 8001848:	681b      	ldr	r3, [r3, #0]
 800184a:	4618      	mov	r0, r3
 800184c:	f7ff fee2 	bl	8001614 <LL_EXTI_EnableEvent_0_31>
          break;
 8001850:	e002      	b.n	8001858 <LL_EXTI_Init+0x7c>
        default:
          status = ERROR;
 8001852:	2301      	movs	r3, #1
 8001854:	73fb      	strb	r3, [r7, #15]
          break;
 8001856:	bf00      	nop
      }
      if (EXTI_InitStruct->Trigger != LL_EXTI_TRIGGER_NONE)
 8001858:	687b      	ldr	r3, [r7, #4]
 800185a:	7a9b      	ldrb	r3, [r3, #10]
 800185c:	2b00      	cmp	r3, #0
 800185e:	d02e      	beq.n	80018be <LL_EXTI_Init+0xe2>
      {
        switch (EXTI_InitStruct->Trigger)
 8001860:	687b      	ldr	r3, [r7, #4]
 8001862:	7a9b      	ldrb	r3, [r3, #10]
 8001864:	2b03      	cmp	r3, #3
 8001866:	d01c      	beq.n	80018a2 <LL_EXTI_Init+0xc6>
 8001868:	2b03      	cmp	r3, #3
 800186a:	dc25      	bgt.n	80018b8 <LL_EXTI_Init+0xdc>
 800186c:	2b01      	cmp	r3, #1
 800186e:	d002      	beq.n	8001876 <LL_EXTI_Init+0x9a>
 8001870:	2b02      	cmp	r3, #2
 8001872:	d00b      	beq.n	800188c <LL_EXTI_Init+0xb0>
 8001874:	e020      	b.n	80018b8 <LL_EXTI_Init+0xdc>
        {
          case LL_EXTI_TRIGGER_RISING:
            /* First Disable Falling Trigger on provided Lines */
            LL_EXTI_DisableFallingTrig_0_31(EXTI_InitStruct->Line_0_31);
 8001876:	687b      	ldr	r3, [r7, #4]
 8001878:	681b      	ldr	r3, [r3, #0]
 800187a:	4618      	mov	r0, r3
 800187c:	f7ff ff86 	bl	800178c <LL_EXTI_DisableFallingTrig_0_31>
            /* Then Enable Rising Trigger on provided Lines */
            LL_EXTI_EnableRisingTrig_0_31(EXTI_InitStruct->Line_0_31);
 8001880:	687b      	ldr	r3, [r7, #4]
 8001882:	681b      	ldr	r3, [r3, #0]
 8001884:	4618      	mov	r0, r3
 8001886:	f7ff ff11 	bl	80016ac <LL_EXTI_EnableRisingTrig_0_31>
            break;
 800188a:	e019      	b.n	80018c0 <LL_EXTI_Init+0xe4>
          case LL_EXTI_TRIGGER_FALLING:
            /* First Disable Rising Trigger on provided Lines */
            LL_EXTI_DisableRisingTrig_0_31(EXTI_InitStruct->Line_0_31);
 800188c:	687b      	ldr	r3, [r7, #4]
 800188e:	681b      	ldr	r3, [r3, #0]
 8001890:	4618      	mov	r0, r3
 8001892:	f7ff ff2f 	bl	80016f4 <LL_EXTI_DisableRisingTrig_0_31>
            /* Then Enable Falling Trigger on provided Lines */
            LL_EXTI_EnableFallingTrig_0_31(EXTI_InitStruct->Line_0_31);
 8001896:	687b      	ldr	r3, [r7, #4]
 8001898:	681b      	ldr	r3, [r3, #0]
 800189a:	4618      	mov	r0, r3
 800189c:	f7ff ff52 	bl	8001744 <LL_EXTI_EnableFallingTrig_0_31>
            break;
 80018a0:	e00e      	b.n	80018c0 <LL_EXTI_Init+0xe4>
          case LL_EXTI_TRIGGER_RISING_FALLING:
            LL_EXTI_EnableRisingTrig_0_31(EXTI_InitStruct->Line_0_31);
 80018a2:	687b      	ldr	r3, [r7, #4]
 80018a4:	681b      	ldr	r3, [r3, #0]
 80018a6:	4618      	mov	r0, r3
 80018a8:	f7ff ff00 	bl	80016ac <LL_EXTI_EnableRisingTrig_0_31>
            LL_EXTI_EnableFallingTrig_0_31(EXTI_InitStruct->Line_0_31);
 80018ac:	687b      	ldr	r3, [r7, #4]
 80018ae:	681b      	ldr	r3, [r3, #0]
 80018b0:	4618      	mov	r0, r3
 80018b2:	f7ff ff47 	bl	8001744 <LL_EXTI_EnableFallingTrig_0_31>
            break;
 80018b6:	e003      	b.n	80018c0 <LL_EXTI_Init+0xe4>
          default:
            status = ERROR;
 80018b8:	2301      	movs	r3, #1
 80018ba:	73fb      	strb	r3, [r7, #15]
            break;
 80018bc:	e000      	b.n	80018c0 <LL_EXTI_Init+0xe4>
        }
      }
 80018be:	bf00      	nop
    }
#if defined(EXTI_32_63_SUPPORT)
    /* Configure EXTI Lines in range from 32 to 63 */
    if (EXTI_InitStruct->Line_32_63 != LL_EXTI_LINE_NONE)
 80018c0:	687b      	ldr	r3, [r7, #4]
 80018c2:	685b      	ldr	r3, [r3, #4]
 80018c4:	2b00      	cmp	r3, #0
 80018c6:	d076      	beq.n	80019b6 <LL_EXTI_Init+0x1da>
    {
      switch (EXTI_InitStruct->Mode)
 80018c8:	687b      	ldr	r3, [r7, #4]
 80018ca:	7a5b      	ldrb	r3, [r3, #9]
 80018cc:	2b02      	cmp	r3, #2
 80018ce:	d01c      	beq.n	800190a <LL_EXTI_Init+0x12e>
 80018d0:	2b02      	cmp	r3, #2
 80018d2:	dc25      	bgt.n	8001920 <LL_EXTI_Init+0x144>
 80018d4:	2b00      	cmp	r3, #0
 80018d6:	d002      	beq.n	80018de <LL_EXTI_Init+0x102>
 80018d8:	2b01      	cmp	r3, #1
 80018da:	d00b      	beq.n	80018f4 <LL_EXTI_Init+0x118>
 80018dc:	e020      	b.n	8001920 <LL_EXTI_Init+0x144>
      {
        case LL_EXTI_MODE_IT:
          /* First Disable Event on provided Lines */
          LL_EXTI_DisableEvent_32_63(EXTI_InitStruct->Line_32_63);
 80018de:	687b      	ldr	r3, [r7, #4]
 80018e0:	685b      	ldr	r3, [r3, #4]
 80018e2:	4618      	mov	r0, r3
 80018e4:	f7ff fece 	bl	8001684 <LL_EXTI_DisableEvent_32_63>
          /* Then Enable IT on provided Lines */
          LL_EXTI_EnableIT_32_63(EXTI_InitStruct->Line_32_63);
 80018e8:	687b      	ldr	r3, [r7, #4]
 80018ea:	685b      	ldr	r3, [r3, #4]
 80018ec:	4618      	mov	r0, r3
 80018ee:	f7ff fe57 	bl	80015a0 <LL_EXTI_EnableIT_32_63>
          break;
 80018f2:	e018      	b.n	8001926 <LL_EXTI_Init+0x14a>
        case LL_EXTI_MODE_EVENT:
          /* First Disable IT on provided Lines */
          LL_EXTI_DisableIT_32_63(EXTI_InitStruct->Line_32_63);
 80018f4:	687b      	ldr	r3, [r7, #4]
 80018f6:	685b      	ldr	r3, [r3, #4]
 80018f8:	4618      	mov	r0, r3
 80018fa:	f7ff fe77 	bl	80015ec <LL_EXTI_DisableIT_32_63>
          /* Then Enable Event on provided Lines */
          LL_EXTI_EnableEvent_32_63(EXTI_InitStruct->Line_32_63);
 80018fe:	687b      	ldr	r3, [r7, #4]
 8001900:	685b      	ldr	r3, [r3, #4]
 8001902:	4618      	mov	r0, r3
 8001904:	f7ff fe98 	bl	8001638 <LL_EXTI_EnableEvent_32_63>
          break;
 8001908:	e00d      	b.n	8001926 <LL_EXTI_Init+0x14a>
        case LL_EXTI_MODE_IT_EVENT:
          /* Directly Enable IT & Event on provided Lines */
          LL_EXTI_EnableIT_32_63(EXTI_InitStruct->Line_32_63);
 800190a:	687b      	ldr	r3, [r7, #4]
 800190c:	685b      	ldr	r3, [r3, #4]
 800190e:	4618      	mov	r0, r3
 8001910:	f7ff fe46 	bl	80015a0 <LL_EXTI_EnableIT_32_63>
          LL_EXTI_EnableEvent_32_63(EXTI_InitStruct->Line_32_63);
 8001914:	687b      	ldr	r3, [r7, #4]
 8001916:	685b      	ldr	r3, [r3, #4]
 8001918:	4618      	mov	r0, r3
 800191a:	f7ff fe8d 	bl	8001638 <LL_EXTI_EnableEvent_32_63>
          break;
 800191e:	e002      	b.n	8001926 <LL_EXTI_Init+0x14a>
        default:
          status = ERROR;
 8001920:	2301      	movs	r3, #1
 8001922:	73fb      	strb	r3, [r7, #15]
          break;
 8001924:	bf00      	nop
      }
      if (EXTI_InitStruct->Trigger != LL_EXTI_TRIGGER_NONE)
 8001926:	687b      	ldr	r3, [r7, #4]
 8001928:	7a9b      	ldrb	r3, [r3, #10]
 800192a:	2b00      	cmp	r3, #0
 800192c:	d043      	beq.n	80019b6 <LL_EXTI_Init+0x1da>
      {
        switch (EXTI_InitStruct->Trigger)
 800192e:	687b      	ldr	r3, [r7, #4]
 8001930:	7a9b      	ldrb	r3, [r3, #10]
 8001932:	2b03      	cmp	r3, #3
 8001934:	d01c      	beq.n	8001970 <LL_EXTI_Init+0x194>
 8001936:	2b03      	cmp	r3, #3
 8001938:	dc25      	bgt.n	8001986 <LL_EXTI_Init+0x1aa>
 800193a:	2b01      	cmp	r3, #1
 800193c:	d002      	beq.n	8001944 <LL_EXTI_Init+0x168>
 800193e:	2b02      	cmp	r3, #2
 8001940:	d00b      	beq.n	800195a <LL_EXTI_Init+0x17e>
 8001942:	e020      	b.n	8001986 <LL_EXTI_Init+0x1aa>
        {
          case LL_EXTI_TRIGGER_RISING:
            /* First Disable Falling Trigger on provided Lines */
            LL_EXTI_DisableFallingTrig_32_63(EXTI_InitStruct->Line_32_63);
 8001944:	687b      	ldr	r3, [r7, #4]
 8001946:	685b      	ldr	r3, [r3, #4]
 8001948:	4618      	mov	r0, r3
 800194a:	f7ff ff33 	bl	80017b4 <LL_EXTI_DisableFallingTrig_32_63>
            /* Then Enable IT on provided Lines */
            LL_EXTI_EnableRisingTrig_32_63(EXTI_InitStruct->Line_32_63);
 800194e:	687b      	ldr	r3, [r7, #4]
 8001950:	685b      	ldr	r3, [r3, #4]
 8001952:	4618      	mov	r0, r3
 8001954:	f7ff febc 	bl	80016d0 <LL_EXTI_EnableRisingTrig_32_63>
            break;
 8001958:	e02e      	b.n	80019b8 <LL_EXTI_Init+0x1dc>
          case LL_EXTI_TRIGGER_FALLING:
            /* First Disable Rising Trigger on provided Lines */
            LL_EXTI_DisableRisingTrig_32_63(EXTI_InitStruct->Line_32_63);
 800195a:	687b      	ldr	r3, [r7, #4]
 800195c:	685b      	ldr	r3, [r3, #4]
 800195e:	4618      	mov	r0, r3
 8001960:	f7ff fedc 	bl	800171c <LL_EXTI_DisableRisingTrig_32_63>
            /* Then Enable Falling Trigger on provided Lines */
            LL_EXTI_EnableFallingTrig_32_63(EXTI_InitStruct->Line_32_63);
 8001964:	687b      	ldr	r3, [r7, #4]
 8001966:	685b      	ldr	r3, [r3, #4]
 8001968:	4618      	mov	r0, r3
 800196a:	f7ff fefd 	bl	8001768 <LL_EXTI_EnableFallingTrig_32_63>
            break;
 800196e:	e023      	b.n	80019b8 <LL_EXTI_Init+0x1dc>
          case LL_EXTI_TRIGGER_RISING_FALLING:
            LL_EXTI_EnableRisingTrig_32_63(EXTI_InitStruct->Line_32_63);
 8001970:	687b      	ldr	r3, [r7, #4]
 8001972:	685b      	ldr	r3, [r3, #4]
 8001974:	4618      	mov	r0, r3
 8001976:	f7ff feab 	bl	80016d0 <LL_EXTI_EnableRisingTrig_32_63>
            LL_EXTI_EnableFallingTrig_32_63(EXTI_InitStruct->Line_32_63);
 800197a:	687b      	ldr	r3, [r7, #4]
 800197c:	685b      	ldr	r3, [r3, #4]
 800197e:	4618      	mov	r0, r3
 8001980:	f7ff fef2 	bl	8001768 <LL_EXTI_EnableFallingTrig_32_63>
            break;
 8001984:	e018      	b.n	80019b8 <LL_EXTI_Init+0x1dc>
          default:
            status = ERROR;
 8001986:	2301      	movs	r3, #1
 8001988:	73fb      	strb	r3, [r7, #15]
            break;
 800198a:	e015      	b.n	80019b8 <LL_EXTI_Init+0x1dc>
  }
  /* DISABLE LineCommand */
  else
  {
    /* De-configure EXTI Lines in range from 0 to 31 */
    LL_EXTI_DisableIT_0_31(EXTI_InitStruct->Line_0_31);
 800198c:	687b      	ldr	r3, [r7, #4]
 800198e:	681b      	ldr	r3, [r3, #0]
 8001990:	4618      	mov	r0, r3
 8001992:	f7ff fe17 	bl	80015c4 <LL_EXTI_DisableIT_0_31>
    LL_EXTI_DisableEvent_0_31(EXTI_InitStruct->Line_0_31);
 8001996:	687b      	ldr	r3, [r7, #4]
 8001998:	681b      	ldr	r3, [r3, #0]
 800199a:	4618      	mov	r0, r3
 800199c:	f7ff fe5e 	bl	800165c <LL_EXTI_DisableEvent_0_31>
#if defined(EXTI_32_63_SUPPORT)
    /* De-configure EXTI Lines in range from 32 to 63 */
    LL_EXTI_DisableIT_32_63(EXTI_InitStruct->Line_32_63);
 80019a0:	687b      	ldr	r3, [r7, #4]
 80019a2:	685b      	ldr	r3, [r3, #4]
 80019a4:	4618      	mov	r0, r3
 80019a6:	f7ff fe21 	bl	80015ec <LL_EXTI_DisableIT_32_63>
    LL_EXTI_DisableEvent_32_63(EXTI_InitStruct->Line_32_63);
 80019aa:	687b      	ldr	r3, [r7, #4]
 80019ac:	685b      	ldr	r3, [r3, #4]
 80019ae:	4618      	mov	r0, r3
 80019b0:	f7ff fe68 	bl	8001684 <LL_EXTI_DisableEvent_32_63>
 80019b4:	e000      	b.n	80019b8 <LL_EXTI_Init+0x1dc>
      }
 80019b6:	bf00      	nop
#endif
  }
  return status;
 80019b8:	7bfb      	ldrb	r3, [r7, #15]
}
 80019ba:	4618      	mov	r0, r3
 80019bc:	3710      	adds	r7, #16
 80019be:	46bd      	mov	sp, r7
 80019c0:	bd80      	pop	{r7, pc}

080019c2 <LL_GPIO_SetPinMode>:
{
 80019c2:	b480      	push	{r7}
 80019c4:	b089      	sub	sp, #36	; 0x24
 80019c6:	af00      	add	r7, sp, #0
 80019c8:	60f8      	str	r0, [r7, #12]
 80019ca:	60b9      	str	r1, [r7, #8]
 80019cc:	607a      	str	r2, [r7, #4]
  MODIFY_REG(GPIOx->MODER, (GPIO_MODER_MODER0 << (POSITION_VAL(Pin) * 2U)), (Mode << (POSITION_VAL(Pin) * 2U)));
 80019ce:	68fb      	ldr	r3, [r7, #12]
 80019d0:	681a      	ldr	r2, [r3, #0]
 80019d2:	68bb      	ldr	r3, [r7, #8]
 80019d4:	617b      	str	r3, [r7, #20]
   __ASM volatile ("rbit %0, %1" : "=r" (result) : "r" (value) );
 80019d6:	697b      	ldr	r3, [r7, #20]
 80019d8:	fa93 f3a3 	rbit	r3, r3
 80019dc:	613b      	str	r3, [r7, #16]
  return result;
 80019de:	693b      	ldr	r3, [r7, #16]
 80019e0:	fab3 f383 	clz	r3, r3
 80019e4:	b2db      	uxtb	r3, r3
 80019e6:	005b      	lsls	r3, r3, #1
 80019e8:	2103      	movs	r1, #3
 80019ea:	fa01 f303 	lsl.w	r3, r1, r3
 80019ee:	43db      	mvns	r3, r3
 80019f0:	401a      	ands	r2, r3
 80019f2:	68bb      	ldr	r3, [r7, #8]
 80019f4:	61fb      	str	r3, [r7, #28]
   __ASM volatile ("rbit %0, %1" : "=r" (result) : "r" (value) );
 80019f6:	69fb      	ldr	r3, [r7, #28]
 80019f8:	fa93 f3a3 	rbit	r3, r3
 80019fc:	61bb      	str	r3, [r7, #24]
  return result;
 80019fe:	69bb      	ldr	r3, [r7, #24]
 8001a00:	fab3 f383 	clz	r3, r3
 8001a04:	b2db      	uxtb	r3, r3
 8001a06:	005b      	lsls	r3, r3, #1
 8001a08:	6879      	ldr	r1, [r7, #4]
 8001a0a:	fa01 f303 	lsl.w	r3, r1, r3
 8001a0e:	431a      	orrs	r2, r3
 8001a10:	68fb      	ldr	r3, [r7, #12]
 8001a12:	601a      	str	r2, [r3, #0]
}
 8001a14:	bf00      	nop
 8001a16:	3724      	adds	r7, #36	; 0x24
 8001a18:	46bd      	mov	sp, r7
 8001a1a:	f85d 7b04 	ldr.w	r7, [sp], #4
 8001a1e:	4770      	bx	lr

08001a20 <LL_GPIO_SetPinOutputType>:
{
 8001a20:	b480      	push	{r7}
 8001a22:	b085      	sub	sp, #20
 8001a24:	af00      	add	r7, sp, #0
 8001a26:	60f8      	str	r0, [r7, #12]
 8001a28:	60b9      	str	r1, [r7, #8]
 8001a2a:	607a      	str	r2, [r7, #4]
  MODIFY_REG(GPIOx->OTYPER, PinMask, (PinMask * OutputType));
 8001a2c:	68fb      	ldr	r3, [r7, #12]
 8001a2e:	685a      	ldr	r2, [r3, #4]
 8001a30:	68bb      	ldr	r3, [r7, #8]
 8001a32:	43db      	mvns	r3, r3
 8001a34:	401a      	ands	r2, r3
 8001a36:	68bb      	ldr	r3, [r7, #8]
 8001a38:	6879      	ldr	r1, [r7, #4]
 8001a3a:	fb01 f303 	mul.w	r3, r1, r3
 8001a3e:	431a      	orrs	r2, r3
 8001a40:	68fb      	ldr	r3, [r7, #12]
 8001a42:	605a      	str	r2, [r3, #4]
}
 8001a44:	bf00      	nop
 8001a46:	3714      	adds	r7, #20
 8001a48:	46bd      	mov	sp, r7
 8001a4a:	f85d 7b04 	ldr.w	r7, [sp], #4
 8001a4e:	4770      	bx	lr

08001a50 <LL_GPIO_SetPinSpeed>:
{
 8001a50:	b480      	push	{r7}
 8001a52:	b089      	sub	sp, #36	; 0x24
 8001a54:	af00      	add	r7, sp, #0
 8001a56:	60f8      	str	r0, [r7, #12]
 8001a58:	60b9      	str	r1, [r7, #8]
 8001a5a:	607a      	str	r2, [r7, #4]
  MODIFY_REG(GPIOx->OSPEEDR, (GPIO_OSPEEDER_OSPEEDR0 << (POSITION_VAL(Pin) * 2U)),
 8001a5c:	68fb      	ldr	r3, [r7, #12]
 8001a5e:	689a      	ldr	r2, [r3, #8]
 8001a60:	68bb      	ldr	r3, [r7, #8]
 8001a62:	617b      	str	r3, [r7, #20]
   __ASM volatile ("rbit %0, %1" : "=r" (result) : "r" (value) );
 8001a64:	697b      	ldr	r3, [r7, #20]
 8001a66:	fa93 f3a3 	rbit	r3, r3
 8001a6a:	613b      	str	r3, [r7, #16]
  return result;
 8001a6c:	693b      	ldr	r3, [r7, #16]
 8001a6e:	fab3 f383 	clz	r3, r3
 8001a72:	b2db      	uxtb	r3, r3
 8001a74:	005b      	lsls	r3, r3, #1
 8001a76:	2103      	movs	r1, #3
 8001a78:	fa01 f303 	lsl.w	r3, r1, r3
 8001a7c:	43db      	mvns	r3, r3
 8001a7e:	401a      	ands	r2, r3
 8001a80:	68bb      	ldr	r3, [r7, #8]
 8001a82:	61fb      	str	r3, [r7, #28]
   __ASM volatile ("rbit %0, %1" : "=r" (result) : "r" (value) );
 8001a84:	69fb      	ldr	r3, [r7, #28]
 8001a86:	fa93 f3a3 	rbit	r3, r3
 8001a8a:	61bb      	str	r3, [r7, #24]
  return result;
 8001a8c:	69bb      	ldr	r3, [r7, #24]
 8001a8e:	fab3 f383 	clz	r3, r3
 8001a92:	b2db      	uxtb	r3, r3
 8001a94:	005b      	lsls	r3, r3, #1
 8001a96:	6879      	ldr	r1, [r7, #4]
 8001a98:	fa01 f303 	lsl.w	r3, r1, r3
 8001a9c:	431a      	orrs	r2, r3
 8001a9e:	68fb      	ldr	r3, [r7, #12]
 8001aa0:	609a      	str	r2, [r3, #8]
}
 8001aa2:	bf00      	nop
 8001aa4:	3724      	adds	r7, #36	; 0x24
 8001aa6:	46bd      	mov	sp, r7
 8001aa8:	f85d 7b04 	ldr.w	r7, [sp], #4
 8001aac:	4770      	bx	lr

08001aae <LL_GPIO_SetPinPull>:
{
 8001aae:	b480      	push	{r7}
 8001ab0:	b089      	sub	sp, #36	; 0x24
 8001ab2:	af00      	add	r7, sp, #0
 8001ab4:	60f8      	str	r0, [r7, #12]
 8001ab6:	60b9      	str	r1, [r7, #8]
 8001ab8:	607a      	str	r2, [r7, #4]
  MODIFY_REG(GPIOx->PUPDR, (GPIO_PUPDR_PUPDR0 << (POSITION_VAL(Pin) * 2U)), (Pull << (POSITION_VAL(Pin) * 2U)));
 8001aba:	68fb      	ldr	r3, [r7, #12]
 8001abc:	68da      	ldr	r2, [r3, #12]
 8001abe:	68bb      	ldr	r3, [r7, #8]
 8001ac0:	617b      	str	r3, [r7, #20]
   __ASM volatile ("rbit %0, %1" : "=r" (result) : "r" (value) );
 8001ac2:	697b      	ldr	r3, [r7, #20]
 8001ac4:	fa93 f3a3 	rbit	r3, r3
 8001ac8:	613b      	str	r3, [r7, #16]
  return result;
 8001aca:	693b      	ldr	r3, [r7, #16]
 8001acc:	fab3 f383 	clz	r3, r3
 8001ad0:	b2db      	uxtb	r3, r3
 8001ad2:	005b      	lsls	r3, r3, #1
 8001ad4:	2103      	movs	r1, #3
 8001ad6:	fa01 f303 	lsl.w	r3, r1, r3
 8001ada:	43db      	mvns	r3, r3
 8001adc:	401a      	ands	r2, r3
 8001ade:	68bb      	ldr	r3, [r7, #8]
 8001ae0:	61fb      	str	r3, [r7, #28]
   __ASM volatile ("rbit %0, %1" : "=r" (result) : "r" (value) );
 8001ae2:	69fb      	ldr	r3, [r7, #28]
 8001ae4:	fa93 f3a3 	rbit	r3, r3
 8001ae8:	61bb      	str	r3, [r7, #24]
  return result;
 8001aea:	69bb      	ldr	r3, [r7, #24]
 8001aec:	fab3 f383 	clz	r3, r3
 8001af0:	b2db      	uxtb	r3, r3
 8001af2:	005b      	lsls	r3, r3, #1
 8001af4:	6879      	ldr	r1, [r7, #4]
 8001af6:	fa01 f303 	lsl.w	r3, r1, r3
 8001afa:	431a      	orrs	r2, r3
 8001afc:	68fb      	ldr	r3, [r7, #12]
 8001afe:	60da      	str	r2, [r3, #12]
}
 8001b00:	bf00      	nop
 8001b02:	3724      	adds	r7, #36	; 0x24
 8001b04:	46bd      	mov	sp, r7
 8001b06:	f85d 7b04 	ldr.w	r7, [sp], #4
 8001b0a:	4770      	bx	lr

08001b0c <LL_GPIO_SetAFPin_0_7>:
{
 8001b0c:	b480      	push	{r7}
 8001b0e:	b089      	sub	sp, #36	; 0x24
 8001b10:	af00      	add	r7, sp, #0
 8001b12:	60f8      	str	r0, [r7, #12]
 8001b14:	60b9      	str	r1, [r7, #8]
 8001b16:	607a      	str	r2, [r7, #4]
  MODIFY_REG(GPIOx->AFR[0], (GPIO_AFRL_AFRL0 << (POSITION_VAL(Pin) * 4U)),
 8001b18:	68fb      	ldr	r3, [r7, #12]
 8001b1a:	6a1a      	ldr	r2, [r3, #32]
 8001b1c:	68bb      	ldr	r3, [r7, #8]
 8001b1e:	617b      	str	r3, [r7, #20]
   __ASM volatile ("rbit %0, %1" : "=r" (result) : "r" (value) );
 8001b20:	697b      	ldr	r3, [r7, #20]
 8001b22:	fa93 f3a3 	rbit	r3, r3
 8001b26:	613b      	str	r3, [r7, #16]
  return result;
 8001b28:	693b      	ldr	r3, [r7, #16]
 8001b2a:	fab3 f383 	clz	r3, r3
 8001b2e:	b2db      	uxtb	r3, r3
 8001b30:	009b      	lsls	r3, r3, #2
 8001b32:	210f      	movs	r1, #15
 8001b34:	fa01 f303 	lsl.w	r3, r1, r3
 8001b38:	43db      	mvns	r3, r3
 8001b3a:	401a      	ands	r2, r3
 8001b3c:	68bb      	ldr	r3, [r7, #8]
 8001b3e:	61fb      	str	r3, [r7, #28]
   __ASM volatile ("rbit %0, %1" : "=r" (result) : "r" (value) );
 8001b40:	69fb      	ldr	r3, [r7, #28]
 8001b42:	fa93 f3a3 	rbit	r3, r3
 8001b46:	61bb      	str	r3, [r7, #24]
  return result;
 8001b48:	69bb      	ldr	r3, [r7, #24]
 8001b4a:	fab3 f383 	clz	r3, r3
 8001b4e:	b2db      	uxtb	r3, r3
 8001b50:	009b      	lsls	r3, r3, #2
 8001b52:	6879      	ldr	r1, [r7, #4]
 8001b54:	fa01 f303 	lsl.w	r3, r1, r3
 8001b58:	431a      	orrs	r2, r3
 8001b5a:	68fb      	ldr	r3, [r7, #12]
 8001b5c:	621a      	str	r2, [r3, #32]
}
 8001b5e:	bf00      	nop
 8001b60:	3724      	adds	r7, #36	; 0x24
 8001b62:	46bd      	mov	sp, r7
 8001b64:	f85d 7b04 	ldr.w	r7, [sp], #4
 8001b68:	4770      	bx	lr

08001b6a <LL_GPIO_SetAFPin_8_15>:
{
 8001b6a:	b480      	push	{r7}
 8001b6c:	b089      	sub	sp, #36	; 0x24
 8001b6e:	af00      	add	r7, sp, #0
 8001b70:	60f8      	str	r0, [r7, #12]
 8001b72:	60b9      	str	r1, [r7, #8]
 8001b74:	607a      	str	r2, [r7, #4]
  MODIFY_REG(GPIOx->AFR[1], (GPIO_AFRH_AFRH0 << (POSITION_VAL(Pin >> 8U) * 4U)),
 8001b76:	68fb      	ldr	r3, [r7, #12]
 8001b78:	6a5a      	ldr	r2, [r3, #36]	; 0x24
 8001b7a:	68bb      	ldr	r3, [r7, #8]
 8001b7c:	0a1b      	lsrs	r3, r3, #8
 8001b7e:	617b      	str	r3, [r7, #20]
   __ASM volatile ("rbit %0, %1" : "=r" (result) : "r" (value) );
 8001b80:	697b      	ldr	r3, [r7, #20]
 8001b82:	fa93 f3a3 	rbit	r3, r3
 8001b86:	613b      	str	r3, [r7, #16]
  return result;
 8001b88:	693b      	ldr	r3, [r7, #16]
 8001b8a:	fab3 f383 	clz	r3, r3
 8001b8e:	b2db      	uxtb	r3, r3
 8001b90:	009b      	lsls	r3, r3, #2
 8001b92:	210f      	movs	r1, #15
 8001b94:	fa01 f303 	lsl.w	r3, r1, r3
 8001b98:	43db      	mvns	r3, r3
 8001b9a:	401a      	ands	r2, r3
 8001b9c:	68bb      	ldr	r3, [r7, #8]
 8001b9e:	0a1b      	lsrs	r3, r3, #8
 8001ba0:	61fb      	str	r3, [r7, #28]
   __ASM volatile ("rbit %0, %1" : "=r" (result) : "r" (value) );
 8001ba2:	69fb      	ldr	r3, [r7, #28]
 8001ba4:	fa93 f3a3 	rbit	r3, r3
 8001ba8:	61bb      	str	r3, [r7, #24]
  return result;
 8001baa:	69bb      	ldr	r3, [r7, #24]
 8001bac:	fab3 f383 	clz	r3, r3
 8001bb0:	b2db      	uxtb	r3, r3
 8001bb2:	009b      	lsls	r3, r3, #2
 8001bb4:	6879      	ldr	r1, [r7, #4]
 8001bb6:	fa01 f303 	lsl.w	r3, r1, r3
 8001bba:	431a      	orrs	r2, r3
 8001bbc:	68fb      	ldr	r3, [r7, #12]
 8001bbe:	625a      	str	r2, [r3, #36]	; 0x24
}
 8001bc0:	bf00      	nop
 8001bc2:	3724      	adds	r7, #36	; 0x24
 8001bc4:	46bd      	mov	sp, r7
 8001bc6:	f85d 7b04 	ldr.w	r7, [sp], #4
 8001bca:	4770      	bx	lr

08001bcc <LL_GPIO_Init>:
  * @retval An ErrorStatus enumeration value:
  *          - SUCCESS: GPIO registers are initialized according to GPIO_InitStruct content
  *          - ERROR:   Not applicable
  */
ErrorStatus LL_GPIO_Init(GPIO_TypeDef *GPIOx, LL_GPIO_InitTypeDef *GPIO_InitStruct)
{
 8001bcc:	b580      	push	{r7, lr}
 8001bce:	b088      	sub	sp, #32
 8001bd0:	af00      	add	r7, sp, #0
 8001bd2:	6078      	str	r0, [r7, #4]
 8001bd4:	6039      	str	r1, [r7, #0]
  assert_param(IS_LL_GPIO_MODE(GPIO_InitStruct->Mode));
  assert_param(IS_LL_GPIO_PULL(GPIO_InitStruct->Pull));

  /* ------------------------- Configure the port pins ---------------- */
  /* Initialize  pinpos on first pin set */
  pinpos = POSITION_VAL(GPIO_InitStruct->Pin);
 8001bd6:	683b      	ldr	r3, [r7, #0]
 8001bd8:	681b      	ldr	r3, [r3, #0]
 8001bda:	617b      	str	r3, [r7, #20]
   __ASM volatile ("rbit %0, %1" : "=r" (result) : "r" (value) );
 8001bdc:	697b      	ldr	r3, [r7, #20]
 8001bde:	fa93 f3a3 	rbit	r3, r3
 8001be2:	613b      	str	r3, [r7, #16]
  return result;
 8001be4:	693b      	ldr	r3, [r7, #16]
 8001be6:	fab3 f383 	clz	r3, r3
 8001bea:	b2db      	uxtb	r3, r3
 8001bec:	61fb      	str	r3, [r7, #28]

  /* Configure the port pins */
  while (((GPIO_InitStruct->Pin) >> pinpos) != 0x00u)
 8001bee:	e051      	b.n	8001c94 <LL_GPIO_Init+0xc8>
  {
    /* Get current io position */
    currentpin = (GPIO_InitStruct->Pin) & (0x00000001uL << pinpos);
 8001bf0:	683b      	ldr	r3, [r7, #0]
 8001bf2:	681a      	ldr	r2, [r3, #0]
 8001bf4:	2101      	movs	r1, #1
 8001bf6:	69fb      	ldr	r3, [r7, #28]
 8001bf8:	fa01 f303 	lsl.w	r3, r1, r3
 8001bfc:	4013      	ands	r3, r2
 8001bfe:	61bb      	str	r3, [r7, #24]

    if (currentpin != 0x00u)
 8001c00:	69bb      	ldr	r3, [r7, #24]
 8001c02:	2b00      	cmp	r3, #0
 8001c04:	d043      	beq.n	8001c8e <LL_GPIO_Init+0xc2>
    {
      if ((GPIO_InitStruct->Mode == LL_GPIO_MODE_OUTPUT) || (GPIO_InitStruct->Mode == LL_GPIO_MODE_ALTERNATE))
 8001c06:	683b      	ldr	r3, [r7, #0]
 8001c08:	685b      	ldr	r3, [r3, #4]
 8001c0a:	2b01      	cmp	r3, #1
 8001c0c:	d003      	beq.n	8001c16 <LL_GPIO_Init+0x4a>
 8001c0e:	683b      	ldr	r3, [r7, #0]
 8001c10:	685b      	ldr	r3, [r3, #4]
 8001c12:	2b02      	cmp	r3, #2
 8001c14:	d10e      	bne.n	8001c34 <LL_GPIO_Init+0x68>
      {
        /* Check Speed mode parameters */
        assert_param(IS_LL_GPIO_SPEED(GPIO_InitStruct->Speed));

        /* Speed mode configuration */
        LL_GPIO_SetPinSpeed(GPIOx, currentpin, GPIO_InitStruct->Speed);
 8001c16:	683b      	ldr	r3, [r7, #0]
 8001c18:	689b      	ldr	r3, [r3, #8]
 8001c1a:	461a      	mov	r2, r3
 8001c1c:	69b9      	ldr	r1, [r7, #24]
 8001c1e:	6878      	ldr	r0, [r7, #4]
 8001c20:	f7ff ff16 	bl	8001a50 <LL_GPIO_SetPinSpeed>

        /* Check Output mode parameters */
        assert_param(IS_LL_GPIO_OUTPUT_TYPE(GPIO_InitStruct->OutputType));

        /* Output mode configuration*/
        LL_GPIO_SetPinOutputType(GPIOx, GPIO_InitStruct->Pin, GPIO_InitStruct->OutputType);
 8001c24:	683b      	ldr	r3, [r7, #0]
 8001c26:	6819      	ldr	r1, [r3, #0]
 8001c28:	683b      	ldr	r3, [r7, #0]
 8001c2a:	68db      	ldr	r3, [r3, #12]
 8001c2c:	461a      	mov	r2, r3
 8001c2e:	6878      	ldr	r0, [r7, #4]
 8001c30:	f7ff fef6 	bl	8001a20 <LL_GPIO_SetPinOutputType>
      }

      /* Pull-up Pull down resistor configuration*/
      LL_GPIO_SetPinPull(GPIOx, currentpin, GPIO_InitStruct->Pull);
 8001c34:	683b      	ldr	r3, [r7, #0]
 8001c36:	691b      	ldr	r3, [r3, #16]
 8001c38:	461a      	mov	r2, r3
 8001c3a:	69b9      	ldr	r1, [r7, #24]
 8001c3c:	6878      	ldr	r0, [r7, #4]
 8001c3e:	f7ff ff36 	bl	8001aae <LL_GPIO_SetPinPull>

      if (GPIO_InitStruct->Mode == LL_GPIO_MODE_ALTERNATE)
 8001c42:	683b      	ldr	r3, [r7, #0]
 8001c44:	685b      	ldr	r3, [r3, #4]
 8001c46:	2b02      	cmp	r3, #2
 8001c48:	d11a      	bne.n	8001c80 <LL_GPIO_Init+0xb4>
 8001c4a:	69bb      	ldr	r3, [r7, #24]
 8001c4c:	60fb      	str	r3, [r7, #12]
   __ASM volatile ("rbit %0, %1" : "=r" (result) : "r" (value) );
 8001c4e:	68fb      	ldr	r3, [r7, #12]
 8001c50:	fa93 f3a3 	rbit	r3, r3
 8001c54:	60bb      	str	r3, [r7, #8]
  return result;
 8001c56:	68bb      	ldr	r3, [r7, #8]
      {
        /* Check Alternate parameter */
        assert_param(IS_LL_GPIO_ALTERNATE(GPIO_InitStruct->Alternate));

        /* Speed mode configuration */
        if (POSITION_VAL(currentpin) < 0x00000008U)
 8001c58:	fab3 f383 	clz	r3, r3
 8001c5c:	b2db      	uxtb	r3, r3
 8001c5e:	2b07      	cmp	r3, #7
 8001c60:	d807      	bhi.n	8001c72 <LL_GPIO_Init+0xa6>
        {
          LL_GPIO_SetAFPin_0_7(GPIOx, currentpin, GPIO_InitStruct->Alternate);
 8001c62:	683b      	ldr	r3, [r7, #0]
 8001c64:	695b      	ldr	r3, [r3, #20]
 8001c66:	461a      	mov	r2, r3
 8001c68:	69b9      	ldr	r1, [r7, #24]
 8001c6a:	6878      	ldr	r0, [r7, #4]
 8001c6c:	f7ff ff4e 	bl	8001b0c <LL_GPIO_SetAFPin_0_7>
 8001c70:	e006      	b.n	8001c80 <LL_GPIO_Init+0xb4>
        }
        else
        {
          LL_GPIO_SetAFPin_8_15(GPIOx, currentpin, GPIO_InitStruct->Alternate);
 8001c72:	683b      	ldr	r3, [r7, #0]
 8001c74:	695b      	ldr	r3, [r3, #20]
 8001c76:	461a      	mov	r2, r3
 8001c78:	69b9      	ldr	r1, [r7, #24]
 8001c7a:	6878      	ldr	r0, [r7, #4]
 8001c7c:	f7ff ff75 	bl	8001b6a <LL_GPIO_SetAFPin_8_15>
        }
      }

      /* Pin Mode configuration */
      LL_GPIO_SetPinMode(GPIOx, currentpin, GPIO_InitStruct->Mode);
 8001c80:	683b      	ldr	r3, [r7, #0]
 8001c82:	685b      	ldr	r3, [r3, #4]
 8001c84:	461a      	mov	r2, r3
 8001c86:	69b9      	ldr	r1, [r7, #24]
 8001c88:	6878      	ldr	r0, [r7, #4]
 8001c8a:	f7ff fe9a 	bl	80019c2 <LL_GPIO_SetPinMode>
    }
    pinpos++;
 8001c8e:	69fb      	ldr	r3, [r7, #28]
 8001c90:	3301      	adds	r3, #1
 8001c92:	61fb      	str	r3, [r7, #28]
  while (((GPIO_InitStruct->Pin) >> pinpos) != 0x00u)
 8001c94:	683b      	ldr	r3, [r7, #0]
 8001c96:	681a      	ldr	r2, [r3, #0]
 8001c98:	69fb      	ldr	r3, [r7, #28]
 8001c9a:	fa22 f303 	lsr.w	r3, r2, r3
 8001c9e:	2b00      	cmp	r3, #0
 8001ca0:	d1a6      	bne.n	8001bf0 <LL_GPIO_Init+0x24>
  }

  return (SUCCESS);
 8001ca2:	2300      	movs	r3, #0
}
 8001ca4:	4618      	mov	r0, r3
 8001ca6:	3720      	adds	r7, #32
 8001ca8:	46bd      	mov	sp, r7
 8001caa:	bd80      	pop	{r7, pc}

08001cac <LL_RCC_HSI_IsReady>:
{
 8001cac:	b480      	push	{r7}
 8001cae:	af00      	add	r7, sp, #0
  return (READ_BIT(RCC->CR, RCC_CR_HSIRDY) == (RCC_CR_HSIRDY));
 8001cb0:	4b06      	ldr	r3, [pc, #24]	; (8001ccc <LL_RCC_HSI_IsReady+0x20>)
 8001cb2:	681b      	ldr	r3, [r3, #0]
 8001cb4:	f003 0302 	and.w	r3, r3, #2
 8001cb8:	2b02      	cmp	r3, #2
 8001cba:	bf0c      	ite	eq
 8001cbc:	2301      	moveq	r3, #1
 8001cbe:	2300      	movne	r3, #0
 8001cc0:	b2db      	uxtb	r3, r3
}
 8001cc2:	4618      	mov	r0, r3
 8001cc4:	46bd      	mov	sp, r7
 8001cc6:	f85d 7b04 	ldr.w	r7, [sp], #4
 8001cca:	4770      	bx	lr
 8001ccc:	40021000 	.word	0x40021000

08001cd0 <LL_RCC_LSE_IsReady>:
{
 8001cd0:	b480      	push	{r7}
 8001cd2:	af00      	add	r7, sp, #0
  return (READ_BIT(RCC->BDCR, RCC_BDCR_LSERDY) == (RCC_BDCR_LSERDY));
 8001cd4:	4b06      	ldr	r3, [pc, #24]	; (8001cf0 <LL_RCC_LSE_IsReady+0x20>)
 8001cd6:	6a1b      	ldr	r3, [r3, #32]
 8001cd8:	f003 0302 	and.w	r3, r3, #2
 8001cdc:	2b02      	cmp	r3, #2
 8001cde:	bf0c      	ite	eq
 8001ce0:	2301      	moveq	r3, #1
 8001ce2:	2300      	movne	r3, #0
 8001ce4:	b2db      	uxtb	r3, r3
}
 8001ce6:	4618      	mov	r0, r3
 8001ce8:	46bd      	mov	sp, r7
 8001cea:	f85d 7b04 	ldr.w	r7, [sp], #4
 8001cee:	4770      	bx	lr
 8001cf0:	40021000 	.word	0x40021000

08001cf4 <LL_RCC_GetSysClkSource>:
{
 8001cf4:	b480      	push	{r7}
 8001cf6:	af00      	add	r7, sp, #0
  return (uint32_t)(READ_BIT(RCC->CFGR, RCC_CFGR_SWS));
 8001cf8:	4b04      	ldr	r3, [pc, #16]	; (8001d0c <LL_RCC_GetSysClkSource+0x18>)
 8001cfa:	685b      	ldr	r3, [r3, #4]
 8001cfc:	f003 030c 	and.w	r3, r3, #12
}
 8001d00:	4618      	mov	r0, r3
 8001d02:	46bd      	mov	sp, r7
 8001d04:	f85d 7b04 	ldr.w	r7, [sp], #4
 8001d08:	4770      	bx	lr
 8001d0a:	bf00      	nop
 8001d0c:	40021000 	.word	0x40021000

08001d10 <LL_RCC_GetAHBPrescaler>:
{
 8001d10:	b480      	push	{r7}
 8001d12:	af00      	add	r7, sp, #0
  return (uint32_t)(READ_BIT(RCC->CFGR, RCC_CFGR_HPRE));
 8001d14:	4b04      	ldr	r3, [pc, #16]	; (8001d28 <LL_RCC_GetAHBPrescaler+0x18>)
 8001d16:	685b      	ldr	r3, [r3, #4]
 8001d18:	f003 03f0 	and.w	r3, r3, #240	; 0xf0
}
 8001d1c:	4618      	mov	r0, r3
 8001d1e:	46bd      	mov	sp, r7
 8001d20:	f85d 7b04 	ldr.w	r7, [sp], #4
 8001d24:	4770      	bx	lr
 8001d26:	bf00      	nop
 8001d28:	40021000 	.word	0x40021000

08001d2c <LL_RCC_GetAPB1Prescaler>:
{
 8001d2c:	b480      	push	{r7}
 8001d2e:	af00      	add	r7, sp, #0
  return (uint32_t)(READ_BIT(RCC->CFGR, RCC_CFGR_PPRE1));
 8001d30:	4b04      	ldr	r3, [pc, #16]	; (8001d44 <LL_RCC_GetAPB1Prescaler+0x18>)
 8001d32:	685b      	ldr	r3, [r3, #4]
 8001d34:	f403 63e0 	and.w	r3, r3, #1792	; 0x700
}
 8001d38:	4618      	mov	r0, r3
 8001d3a:	46bd      	mov	sp, r7
 8001d3c:	f85d 7b04 	ldr.w	r7, [sp], #4
 8001d40:	4770      	bx	lr
 8001d42:	bf00      	nop
 8001d44:	40021000 	.word	0x40021000

08001d48 <LL_RCC_GetAPB2Prescaler>:
{
 8001d48:	b480      	push	{r7}
 8001d4a:	af00      	add	r7, sp, #0
  return (uint32_t)(READ_BIT(RCC->CFGR, RCC_CFGR_PPRE2));
 8001d4c:	4b04      	ldr	r3, [pc, #16]	; (8001d60 <LL_RCC_GetAPB2Prescaler+0x18>)
 8001d4e:	685b      	ldr	r3, [r3, #4]
 8001d50:	f403 5360 	and.w	r3, r3, #14336	; 0x3800
}
 8001d54:	4618      	mov	r0, r3
 8001d56:	46bd      	mov	sp, r7
 8001d58:	f85d 7b04 	ldr.w	r7, [sp], #4
 8001d5c:	4770      	bx	lr
 8001d5e:	bf00      	nop
 8001d60:	40021000 	.word	0x40021000

08001d64 <LL_RCC_GetUSARTClockSource>:
{
 8001d64:	b480      	push	{r7}
 8001d66:	b083      	sub	sp, #12
 8001d68:	af00      	add	r7, sp, #0
 8001d6a:	6078      	str	r0, [r7, #4]
  return (uint32_t)(READ_BIT(RCC->CFGR3, (RCC_CFGR3_USART1SW << USARTx)) | (USARTx << 24U));
 8001d6c:	4b07      	ldr	r3, [pc, #28]	; (8001d8c <LL_RCC_GetUSARTClockSource+0x28>)
 8001d6e:	6b1a      	ldr	r2, [r3, #48]	; 0x30
 8001d70:	2103      	movs	r1, #3
 8001d72:	687b      	ldr	r3, [r7, #4]
 8001d74:	fa01 f303 	lsl.w	r3, r1, r3
 8001d78:	401a      	ands	r2, r3
 8001d7a:	687b      	ldr	r3, [r7, #4]
 8001d7c:	061b      	lsls	r3, r3, #24
 8001d7e:	4313      	orrs	r3, r2
}
 8001d80:	4618      	mov	r0, r3
 8001d82:	370c      	adds	r7, #12
 8001d84:	46bd      	mov	sp, r7
 8001d86:	f85d 7b04 	ldr.w	r7, [sp], #4
 8001d8a:	4770      	bx	lr
 8001d8c:	40021000 	.word	0x40021000

08001d90 <LL_RCC_PLL_GetMainSource>:
  *         @arg @ref LL_RCC_PLLSOURCE_HSE
  *
  *         (*) value not defined in all devices
  */
__STATIC_INLINE uint32_t LL_RCC_PLL_GetMainSource(void)
{
 8001d90:	b480      	push	{r7}
 8001d92:	af00      	add	r7, sp, #0
  return (uint32_t)(READ_BIT(RCC->CFGR, RCC_CFGR_PLLSRC));
 8001d94:	4b04      	ldr	r3, [pc, #16]	; (8001da8 <LL_RCC_PLL_GetMainSource+0x18>)
 8001d96:	685b      	ldr	r3, [r3, #4]
 8001d98:	f403 3380 	and.w	r3, r3, #65536	; 0x10000
}
 8001d9c:	4618      	mov	r0, r3
 8001d9e:	46bd      	mov	sp, r7
 8001da0:	f85d 7b04 	ldr.w	r7, [sp], #4
 8001da4:	4770      	bx	lr
 8001da6:	bf00      	nop
 8001da8:	40021000 	.word	0x40021000

08001dac <LL_RCC_PLL_GetMultiplicator>:
  *         @arg @ref LL_RCC_PLL_MUL_14
  *         @arg @ref LL_RCC_PLL_MUL_15
  *         @arg @ref LL_RCC_PLL_MUL_16
  */
__STATIC_INLINE uint32_t LL_RCC_PLL_GetMultiplicator(void)
{
 8001dac:	b480      	push	{r7}
 8001dae:	af00      	add	r7, sp, #0
  return (uint32_t)(READ_BIT(RCC->CFGR, RCC_CFGR_PLLMUL));
 8001db0:	4b04      	ldr	r3, [pc, #16]	; (8001dc4 <LL_RCC_PLL_GetMultiplicator+0x18>)
 8001db2:	685b      	ldr	r3, [r3, #4]
 8001db4:	f403 1370 	and.w	r3, r3, #3932160	; 0x3c0000
}
 8001db8:	4618      	mov	r0, r3
 8001dba:	46bd      	mov	sp, r7
 8001dbc:	f85d 7b04 	ldr.w	r7, [sp], #4
 8001dc0:	4770      	bx	lr
 8001dc2:	bf00      	nop
 8001dc4:	40021000 	.word	0x40021000

08001dc8 <LL_RCC_PLL_GetPrediv>:
  *         @arg @ref LL_RCC_PREDIV_DIV_14
  *         @arg @ref LL_RCC_PREDIV_DIV_15
  *         @arg @ref LL_RCC_PREDIV_DIV_16
  */
__STATIC_INLINE uint32_t LL_RCC_PLL_GetPrediv(void)
{
 8001dc8:	b480      	push	{r7}
 8001dca:	af00      	add	r7, sp, #0
  return (uint32_t)(READ_BIT(RCC->CFGR2, RCC_CFGR2_PREDIV));
 8001dcc:	4b04      	ldr	r3, [pc, #16]	; (8001de0 <LL_RCC_PLL_GetPrediv+0x18>)
 8001dce:	6adb      	ldr	r3, [r3, #44]	; 0x2c
 8001dd0:	f003 030f 	and.w	r3, r3, #15
}
 8001dd4:	4618      	mov	r0, r3
 8001dd6:	46bd      	mov	sp, r7
 8001dd8:	f85d 7b04 	ldr.w	r7, [sp], #4
 8001ddc:	4770      	bx	lr
 8001dde:	bf00      	nop
 8001de0:	40021000 	.word	0x40021000

08001de4 <LL_RCC_GetSystemClocksFreq>:
  *         configuration based on this function will be incorrect.
  * @param  RCC_Clocks pointer to a @ref LL_RCC_ClocksTypeDef structure which will hold the clocks frequencies
  * @retval None
  */
void LL_RCC_GetSystemClocksFreq(LL_RCC_ClocksTypeDef *RCC_Clocks)
{
 8001de4:	b580      	push	{r7, lr}
 8001de6:	b082      	sub	sp, #8
 8001de8:	af00      	add	r7, sp, #0
 8001dea:	6078      	str	r0, [r7, #4]
  /* Get SYSCLK frequency */
  RCC_Clocks->SYSCLK_Frequency = RCC_GetSystemClockFreq();
 8001dec:	f000 f864 	bl	8001eb8 <RCC_GetSystemClockFreq>
 8001df0:	4602      	mov	r2, r0
 8001df2:	687b      	ldr	r3, [r7, #4]
 8001df4:	601a      	str	r2, [r3, #0]

  /* HCLK clock frequency */
  RCC_Clocks->HCLK_Frequency   = RCC_GetHCLKClockFreq(RCC_Clocks->SYSCLK_Frequency);
 8001df6:	687b      	ldr	r3, [r7, #4]
 8001df8:	681b      	ldr	r3, [r3, #0]
 8001dfa:	4618      	mov	r0, r3
 8001dfc:	f000 f882 	bl	8001f04 <RCC_GetHCLKClockFreq>
 8001e00:	4602      	mov	r2, r0
 8001e02:	687b      	ldr	r3, [r7, #4]
 8001e04:	605a      	str	r2, [r3, #4]

  /* PCLK1 clock frequency */
  RCC_Clocks->PCLK1_Frequency  = RCC_GetPCLK1ClockFreq(RCC_Clocks->HCLK_Frequency);
 8001e06:	687b      	ldr	r3, [r7, #4]
 8001e08:	685b      	ldr	r3, [r3, #4]
 8001e0a:	4618      	mov	r0, r3
 8001e0c:	f000 f890 	bl	8001f30 <RCC_GetPCLK1ClockFreq>
 8001e10:	4602      	mov	r2, r0
 8001e12:	687b      	ldr	r3, [r7, #4]
 8001e14:	609a      	str	r2, [r3, #8]

  /* PCLK2 clock frequency */
  RCC_Clocks->PCLK2_Frequency  = RCC_GetPCLK2ClockFreq(RCC_Clocks->HCLK_Frequency);
 8001e16:	687b      	ldr	r3, [r7, #4]
 8001e18:	685b      	ldr	r3, [r3, #4]
 8001e1a:	4618      	mov	r0, r3
 8001e1c:	f000 f89c 	bl	8001f58 <RCC_GetPCLK2ClockFreq>
 8001e20:	4602      	mov	r2, r0
 8001e22:	687b      	ldr	r3, [r7, #4]
 8001e24:	60da      	str	r2, [r3, #12]
}
 8001e26:	bf00      	nop
 8001e28:	3708      	adds	r7, #8
 8001e2a:	46bd      	mov	sp, r7
 8001e2c:	bd80      	pop	{r7, pc}
	...

08001e30 <LL_RCC_GetUSARTClockFreq>:
  *         (*) value not defined in all devices.
  * @retval USART clock frequency (in Hz)
  *         @arg @ref LL_RCC_PERIPH_FREQUENCY_NO indicates that oscillator (HSI or LSE) is not ready
  */
uint32_t LL_RCC_GetUSARTClockFreq(uint32_t USARTxSource)
{
 8001e30:	b580      	push	{r7, lr}
 8001e32:	b084      	sub	sp, #16
 8001e34:	af00      	add	r7, sp, #0
 8001e36:	6078      	str	r0, [r7, #4]
  uint32_t usart_frequency = LL_RCC_PERIPH_FREQUENCY_NO;
 8001e38:	2300      	movs	r3, #0
 8001e3a:	60fb      	str	r3, [r7, #12]

  /* Check parameter */
  assert_param(IS_LL_RCC_USART_CLKSOURCE(USARTxSource));
#if defined(RCC_CFGR3_USART1SW)
  if (USARTxSource == LL_RCC_USART1_CLKSOURCE)
 8001e3c:	687b      	ldr	r3, [r7, #4]
 8001e3e:	2b00      	cmp	r3, #0
 8001e40:	d12d      	bne.n	8001e9e <LL_RCC_GetUSARTClockFreq+0x6e>
  {
    /* USART1CLK clock frequency */
    switch (LL_RCC_GetUSARTClockSource(USARTxSource))
 8001e42:	6878      	ldr	r0, [r7, #4]
 8001e44:	f7ff ff8e 	bl	8001d64 <LL_RCC_GetUSARTClockSource>
 8001e48:	4603      	mov	r3, r0
 8001e4a:	2b03      	cmp	r3, #3
 8001e4c:	d00a      	beq.n	8001e64 <LL_RCC_GetUSARTClockFreq+0x34>
 8001e4e:	2b03      	cmp	r3, #3
 8001e50:	d819      	bhi.n	8001e86 <LL_RCC_GetUSARTClockFreq+0x56>
 8001e52:	2b01      	cmp	r3, #1
 8001e54:	d002      	beq.n	8001e5c <LL_RCC_GetUSARTClockFreq+0x2c>
 8001e56:	2b02      	cmp	r3, #2
 8001e58:	d00c      	beq.n	8001e74 <LL_RCC_GetUSARTClockFreq+0x44>
 8001e5a:	e014      	b.n	8001e86 <LL_RCC_GetUSARTClockFreq+0x56>
    {
      case LL_RCC_USART1_CLKSOURCE_SYSCLK: /* USART1 Clock is System Clock */
        usart_frequency = RCC_GetSystemClockFreq();
 8001e5c:	f000 f82c 	bl	8001eb8 <RCC_GetSystemClockFreq>
 8001e60:	60f8      	str	r0, [r7, #12]
        break;
 8001e62:	e021      	b.n	8001ea8 <LL_RCC_GetUSARTClockFreq+0x78>

      case LL_RCC_USART1_CLKSOURCE_HSI:    /* USART1 Clock is HSI Osc. */
        if (LL_RCC_HSI_IsReady())
 8001e64:	f7ff ff22 	bl	8001cac <LL_RCC_HSI_IsReady>
 8001e68:	4603      	mov	r3, r0
 8001e6a:	2b00      	cmp	r3, #0
 8001e6c:	d019      	beq.n	8001ea2 <LL_RCC_GetUSARTClockFreq+0x72>
        {
          usart_frequency = HSI_VALUE;
 8001e6e:	4b11      	ldr	r3, [pc, #68]	; (8001eb4 <LL_RCC_GetUSARTClockFreq+0x84>)
 8001e70:	60fb      	str	r3, [r7, #12]
        }
        break;
 8001e72:	e016      	b.n	8001ea2 <LL_RCC_GetUSARTClockFreq+0x72>

      case LL_RCC_USART1_CLKSOURCE_LSE:    /* USART1 Clock is LSE Osc. */
        if (LL_RCC_LSE_IsReady())
 8001e74:	f7ff ff2c 	bl	8001cd0 <LL_RCC_LSE_IsReady>
 8001e78:	4603      	mov	r3, r0
 8001e7a:	2b00      	cmp	r3, #0
 8001e7c:	d013      	beq.n	8001ea6 <LL_RCC_GetUSARTClockFreq+0x76>
        {
          usart_frequency = LSE_VALUE;
 8001e7e:	f44f 4300 	mov.w	r3, #32768	; 0x8000
 8001e82:	60fb      	str	r3, [r7, #12]
        }
        break;
 8001e84:	e00f      	b.n	8001ea6 <LL_RCC_GetUSARTClockFreq+0x76>

#if defined(RCC_CFGR3_USART1SW_PCLK1)
      case LL_RCC_USART1_CLKSOURCE_PCLK1:  /* USART1 Clock is PCLK1 */
      default:
        usart_frequency = RCC_GetPCLK1ClockFreq(RCC_GetHCLKClockFreq(RCC_GetSystemClockFreq()));
 8001e86:	f000 f817 	bl	8001eb8 <RCC_GetSystemClockFreq>
 8001e8a:	4603      	mov	r3, r0
 8001e8c:	4618      	mov	r0, r3
 8001e8e:	f000 f839 	bl	8001f04 <RCC_GetHCLKClockFreq>
 8001e92:	4603      	mov	r3, r0
 8001e94:	4618      	mov	r0, r3
 8001e96:	f000 f84b 	bl	8001f30 <RCC_GetPCLK1ClockFreq>
 8001e9a:	60f8      	str	r0, [r7, #12]
#else
      case LL_RCC_USART1_CLKSOURCE_PCLK2:  /* USART1 Clock is PCLK2 */
      default:
        usart_frequency = RCC_GetPCLK2ClockFreq(RCC_GetHCLKClockFreq(RCC_GetSystemClockFreq()));
#endif /* RCC_CFGR3_USART1SW_PCLK1 */
        break;
 8001e9c:	e004      	b.n	8001ea8 <LL_RCC_GetUSARTClockFreq+0x78>
    }
  }
 8001e9e:	bf00      	nop
 8001ea0:	e002      	b.n	8001ea8 <LL_RCC_GetUSARTClockFreq+0x78>
        break;
 8001ea2:	bf00      	nop
 8001ea4:	e000      	b.n	8001ea8 <LL_RCC_GetUSARTClockFreq+0x78>
        break;
 8001ea6:	bf00      	nop
        break;
    }
  }

#endif /* RCC_CFGR3_USART3SW */
  return usart_frequency;
 8001ea8:	68fb      	ldr	r3, [r7, #12]
}
 8001eaa:	4618      	mov	r0, r3
 8001eac:	3710      	adds	r7, #16
 8001eae:	46bd      	mov	sp, r7
 8001eb0:	bd80      	pop	{r7, pc}
 8001eb2:	bf00      	nop
 8001eb4:	007a1200 	.word	0x007a1200

08001eb8 <RCC_GetSystemClockFreq>:
/**
  * @brief  Return SYSTEM clock frequency
  * @retval SYSTEM clock frequency (in Hz)
  */
uint32_t RCC_GetSystemClockFreq(void)
{
 8001eb8:	b580      	push	{r7, lr}
 8001eba:	b082      	sub	sp, #8
 8001ebc:	af00      	add	r7, sp, #0
  uint32_t frequency = 0U;
 8001ebe:	2300      	movs	r3, #0
 8001ec0:	607b      	str	r3, [r7, #4]

  /* Get SYSCLK source -------------------------------------------------------*/
  switch (LL_RCC_GetSysClkSource())
 8001ec2:	f7ff ff17 	bl	8001cf4 <LL_RCC_GetSysClkSource>
 8001ec6:	4603      	mov	r3, r0
 8001ec8:	2b08      	cmp	r3, #8
 8001eca:	d00c      	beq.n	8001ee6 <RCC_GetSystemClockFreq+0x2e>
 8001ecc:	2b08      	cmp	r3, #8
 8001ece:	d80e      	bhi.n	8001eee <RCC_GetSystemClockFreq+0x36>
 8001ed0:	2b00      	cmp	r3, #0
 8001ed2:	d002      	beq.n	8001eda <RCC_GetSystemClockFreq+0x22>
 8001ed4:	2b04      	cmp	r3, #4
 8001ed6:	d003      	beq.n	8001ee0 <RCC_GetSystemClockFreq+0x28>
 8001ed8:	e009      	b.n	8001eee <RCC_GetSystemClockFreq+0x36>
  {
    case LL_RCC_SYS_CLKSOURCE_STATUS_HSI:  /* HSI used as system clock  source */
      frequency = HSI_VALUE;
 8001eda:	4b09      	ldr	r3, [pc, #36]	; (8001f00 <RCC_GetSystemClockFreq+0x48>)
 8001edc:	607b      	str	r3, [r7, #4]
      break;
 8001ede:	e009      	b.n	8001ef4 <RCC_GetSystemClockFreq+0x3c>

    case LL_RCC_SYS_CLKSOURCE_STATUS_HSE:  /* HSE used as system clock  source */
      frequency = HSE_VALUE;
 8001ee0:	4b07      	ldr	r3, [pc, #28]	; (8001f00 <RCC_GetSystemClockFreq+0x48>)
 8001ee2:	607b      	str	r3, [r7, #4]
      break;
 8001ee4:	e006      	b.n	8001ef4 <RCC_GetSystemClockFreq+0x3c>

    case LL_RCC_SYS_CLKSOURCE_STATUS_PLL:  /* PLL used as system clock  source */
      frequency = RCC_PLL_GetFreqDomain_SYS();
 8001ee6:	f000 f84b 	bl	8001f80 <RCC_PLL_GetFreqDomain_SYS>
 8001eea:	6078      	str	r0, [r7, #4]
      break;
 8001eec:	e002      	b.n	8001ef4 <RCC_GetSystemClockFreq+0x3c>

    default:
      frequency = HSI_VALUE;
 8001eee:	4b04      	ldr	r3, [pc, #16]	; (8001f00 <RCC_GetSystemClockFreq+0x48>)
 8001ef0:	607b      	str	r3, [r7, #4]
      break;
 8001ef2:	bf00      	nop
  }

  return frequency;
 8001ef4:	687b      	ldr	r3, [r7, #4]
}
 8001ef6:	4618      	mov	r0, r3
 8001ef8:	3708      	adds	r7, #8
 8001efa:	46bd      	mov	sp, r7
 8001efc:	bd80      	pop	{r7, pc}
 8001efe:	bf00      	nop
 8001f00:	007a1200 	.word	0x007a1200

08001f04 <RCC_GetHCLKClockFreq>:
  * @brief  Return HCLK clock frequency
  * @param  SYSCLK_Frequency SYSCLK clock frequency
  * @retval HCLK clock frequency (in Hz)
  */
uint32_t RCC_GetHCLKClockFreq(uint32_t SYSCLK_Frequency)
{
 8001f04:	b580      	push	{r7, lr}
 8001f06:	b082      	sub	sp, #8
 8001f08:	af00      	add	r7, sp, #0
 8001f0a:	6078      	str	r0, [r7, #4]
  /* HCLK clock frequency */
  return __LL_RCC_CALC_HCLK_FREQ(SYSCLK_Frequency, LL_RCC_GetAHBPrescaler());
 8001f0c:	f7ff ff00 	bl	8001d10 <LL_RCC_GetAHBPrescaler>
 8001f10:	4603      	mov	r3, r0
 8001f12:	091b      	lsrs	r3, r3, #4
 8001f14:	f003 030f 	and.w	r3, r3, #15
 8001f18:	4a04      	ldr	r2, [pc, #16]	; (8001f2c <RCC_GetHCLKClockFreq+0x28>)
 8001f1a:	5cd3      	ldrb	r3, [r2, r3]
 8001f1c:	461a      	mov	r2, r3
 8001f1e:	687b      	ldr	r3, [r7, #4]
 8001f20:	40d3      	lsrs	r3, r2
}
 8001f22:	4618      	mov	r0, r3
 8001f24:	3708      	adds	r7, #8
 8001f26:	46bd      	mov	sp, r7
 8001f28:	bd80      	pop	{r7, pc}
 8001f2a:	bf00      	nop
 8001f2c:	08002b6c 	.word	0x08002b6c

08001f30 <RCC_GetPCLK1ClockFreq>:
  * @brief  Return PCLK1 clock frequency
  * @param  HCLK_Frequency HCLK clock frequency
  * @retval PCLK1 clock frequency (in Hz)
  */
uint32_t RCC_GetPCLK1ClockFreq(uint32_t HCLK_Frequency)
{
 8001f30:	b580      	push	{r7, lr}
 8001f32:	b082      	sub	sp, #8
 8001f34:	af00      	add	r7, sp, #0
 8001f36:	6078      	str	r0, [r7, #4]
  /* PCLK1 clock frequency */
  return __LL_RCC_CALC_PCLK1_FREQ(HCLK_Frequency, LL_RCC_GetAPB1Prescaler());
 8001f38:	f7ff fef8 	bl	8001d2c <LL_RCC_GetAPB1Prescaler>
 8001f3c:	4603      	mov	r3, r0
 8001f3e:	0a1b      	lsrs	r3, r3, #8
 8001f40:	4a04      	ldr	r2, [pc, #16]	; (8001f54 <RCC_GetPCLK1ClockFreq+0x24>)
 8001f42:	5cd3      	ldrb	r3, [r2, r3]
 8001f44:	461a      	mov	r2, r3
 8001f46:	687b      	ldr	r3, [r7, #4]
 8001f48:	40d3      	lsrs	r3, r2
}
 8001f4a:	4618      	mov	r0, r3
 8001f4c:	3708      	adds	r7, #8
 8001f4e:	46bd      	mov	sp, r7
 8001f50:	bd80      	pop	{r7, pc}
 8001f52:	bf00      	nop
 8001f54:	08002b7c 	.word	0x08002b7c

08001f58 <RCC_GetPCLK2ClockFreq>:
  * @brief  Return PCLK2 clock frequency
  * @param  HCLK_Frequency HCLK clock frequency
  * @retval PCLK2 clock frequency (in Hz)
  */
uint32_t RCC_GetPCLK2ClockFreq(uint32_t HCLK_Frequency)
{
 8001f58:	b580      	push	{r7, lr}
 8001f5a:	b082      	sub	sp, #8
 8001f5c:	af00      	add	r7, sp, #0
 8001f5e:	6078      	str	r0, [r7, #4]
  /* PCLK2 clock frequency */
  return __LL_RCC_CALC_PCLK2_FREQ(HCLK_Frequency, LL_RCC_GetAPB2Prescaler());
 8001f60:	f7ff fef2 	bl	8001d48 <LL_RCC_GetAPB2Prescaler>
 8001f64:	4603      	mov	r3, r0
 8001f66:	0adb      	lsrs	r3, r3, #11
 8001f68:	4a04      	ldr	r2, [pc, #16]	; (8001f7c <RCC_GetPCLK2ClockFreq+0x24>)
 8001f6a:	5cd3      	ldrb	r3, [r2, r3]
 8001f6c:	461a      	mov	r2, r3
 8001f6e:	687b      	ldr	r3, [r7, #4]
 8001f70:	40d3      	lsrs	r3, r2
}
 8001f72:	4618      	mov	r0, r3
 8001f74:	3708      	adds	r7, #8
 8001f76:	46bd      	mov	sp, r7
 8001f78:	bd80      	pop	{r7, pc}
 8001f7a:	bf00      	nop
 8001f7c:	08002b7c 	.word	0x08002b7c

08001f80 <RCC_PLL_GetFreqDomain_SYS>:
/**
  * @brief  Return PLL clock frequency used for system domain
  * @retval PLL clock frequency (in Hz)
  */
uint32_t RCC_PLL_GetFreqDomain_SYS(void)
{
 8001f80:	b590      	push	{r4, r7, lr}
 8001f82:	b085      	sub	sp, #20
 8001f84:	af00      	add	r7, sp, #0
  uint32_t pllinputfreq = 0U, pllsource = 0U;
 8001f86:	2300      	movs	r3, #0
 8001f88:	60fb      	str	r3, [r7, #12]
 8001f8a:	2300      	movs	r3, #0
 8001f8c:	60bb      	str	r3, [r7, #8]

  /* PLL_VCO = (HSE_VALUE or HSI_VALUE / PLL divider) * PLL Multiplicator */

  /* Get PLL source */
  pllsource = LL_RCC_PLL_GetMainSource();
 8001f8e:	f7ff feff 	bl	8001d90 <LL_RCC_PLL_GetMainSource>
 8001f92:	60b8      	str	r0, [r7, #8]

  switch (pllsource)
 8001f94:	68bb      	ldr	r3, [r7, #8]
 8001f96:	2b00      	cmp	r3, #0
 8001f98:	d004      	beq.n	8001fa4 <RCC_PLL_GetFreqDomain_SYS+0x24>
 8001f9a:	68bb      	ldr	r3, [r7, #8]
 8001f9c:	f5b3 3f80 	cmp.w	r3, #65536	; 0x10000
 8001fa0:	d003      	beq.n	8001faa <RCC_PLL_GetFreqDomain_SYS+0x2a>
 8001fa2:	e005      	b.n	8001fb0 <RCC_PLL_GetFreqDomain_SYS+0x30>
#if defined(RCC_PLLSRC_PREDIV1_SUPPORT)
    case LL_RCC_PLLSOURCE_HSI:       /* HSI used as PLL clock source */
      pllinputfreq = HSI_VALUE;
#else
    case LL_RCC_PLLSOURCE_HSI_DIV_2: /* HSI used as PLL clock source */
      pllinputfreq = HSI_VALUE / 2U;
 8001fa4:	4b13      	ldr	r3, [pc, #76]	; (8001ff4 <RCC_PLL_GetFreqDomain_SYS+0x74>)
 8001fa6:	60fb      	str	r3, [r7, #12]
#endif /* RCC_PLLSRC_PREDIV1_SUPPORT */
      break;
 8001fa8:	e005      	b.n	8001fb6 <RCC_PLL_GetFreqDomain_SYS+0x36>

    case LL_RCC_PLLSOURCE_HSE:       /* HSE used as PLL clock source */
      pllinputfreq = HSE_VALUE;
 8001faa:	4b13      	ldr	r3, [pc, #76]	; (8001ff8 <RCC_PLL_GetFreqDomain_SYS+0x78>)
 8001fac:	60fb      	str	r3, [r7, #12]
      break;
 8001fae:	e002      	b.n	8001fb6 <RCC_PLL_GetFreqDomain_SYS+0x36>

    default:
#if defined(RCC_PLLSRC_PREDIV1_SUPPORT)
      pllinputfreq = HSI_VALUE;
#else
      pllinputfreq = HSI_VALUE / 2U;
 8001fb0:	4b10      	ldr	r3, [pc, #64]	; (8001ff4 <RCC_PLL_GetFreqDomain_SYS+0x74>)
 8001fb2:	60fb      	str	r3, [r7, #12]
#endif /* RCC_PLLSRC_PREDIV1_SUPPORT */
      break;
 8001fb4:	bf00      	nop
  }
#if defined(RCC_PLLSRC_PREDIV1_SUPPORT)
  return __LL_RCC_CALC_PLLCLK_FREQ(pllinputfreq, LL_RCC_PLL_GetMultiplicator(), LL_RCC_PLL_GetPrediv());
#else
  return __LL_RCC_CALC_PLLCLK_FREQ((pllinputfreq / (LL_RCC_PLL_GetPrediv() + 1U)), LL_RCC_PLL_GetMultiplicator());
 8001fb6:	f7ff ff07 	bl	8001dc8 <LL_RCC_PLL_GetPrediv>
 8001fba:	4603      	mov	r3, r0
 8001fbc:	3301      	adds	r3, #1
 8001fbe:	68fa      	ldr	r2, [r7, #12]
 8001fc0:	fbb2 f4f3 	udiv	r4, r2, r3
 8001fc4:	f7ff fef2 	bl	8001dac <LL_RCC_PLL_GetMultiplicator>
 8001fc8:	4603      	mov	r3, r0
 8001fca:	f403 1370 	and.w	r3, r3, #3932160	; 0x3c0000
 8001fce:	f44f 1270 	mov.w	r2, #3932160	; 0x3c0000
 8001fd2:	607a      	str	r2, [r7, #4]
   __ASM volatile ("rbit %0, %1" : "=r" (result) : "r" (value) );
 8001fd4:	687a      	ldr	r2, [r7, #4]
 8001fd6:	fa92 f2a2 	rbit	r2, r2
 8001fda:	603a      	str	r2, [r7, #0]
  return result;
 8001fdc:	683a      	ldr	r2, [r7, #0]
 8001fde:	fab2 f282 	clz	r2, r2
 8001fe2:	b2d2      	uxtb	r2, r2
 8001fe4:	40d3      	lsrs	r3, r2
 8001fe6:	3302      	adds	r3, #2
 8001fe8:	fb04 f303 	mul.w	r3, r4, r3
#endif /* RCC_PLLSRC_PREDIV1_SUPPORT */
}
 8001fec:	4618      	mov	r0, r3
 8001fee:	3714      	adds	r7, #20
 8001ff0:	46bd      	mov	sp, r7
 8001ff2:	bd90      	pop	{r4, r7, pc}
 8001ff4:	003d0900 	.word	0x003d0900
 8001ff8:	007a1200 	.word	0x007a1200

08001ffc <LL_TIM_SetPrescaler>:
{
 8001ffc:	b480      	push	{r7}
 8001ffe:	b083      	sub	sp, #12
 8002000:	af00      	add	r7, sp, #0
 8002002:	6078      	str	r0, [r7, #4]
 8002004:	6039      	str	r1, [r7, #0]
  WRITE_REG(TIMx->PSC, Prescaler);
 8002006:	687b      	ldr	r3, [r7, #4]
 8002008:	683a      	ldr	r2, [r7, #0]
 800200a:	629a      	str	r2, [r3, #40]	; 0x28
}
 800200c:	bf00      	nop
 800200e:	370c      	adds	r7, #12
 8002010:	46bd      	mov	sp, r7
 8002012:	f85d 7b04 	ldr.w	r7, [sp], #4
 8002016:	4770      	bx	lr

08002018 <LL_TIM_SetAutoReload>:
{
 8002018:	b480      	push	{r7}
 800201a:	b083      	sub	sp, #12
 800201c:	af00      	add	r7, sp, #0
 800201e:	6078      	str	r0, [r7, #4]
 8002020:	6039      	str	r1, [r7, #0]
  WRITE_REG(TIMx->ARR, AutoReload);
 8002022:	687b      	ldr	r3, [r7, #4]
 8002024:	683a      	ldr	r2, [r7, #0]
 8002026:	62da      	str	r2, [r3, #44]	; 0x2c
}
 8002028:	bf00      	nop
 800202a:	370c      	adds	r7, #12
 800202c:	46bd      	mov	sp, r7
 800202e:	f85d 7b04 	ldr.w	r7, [sp], #4
 8002032:	4770      	bx	lr

08002034 <LL_TIM_SetRepetitionCounter>:
{
 8002034:	b480      	push	{r7}
 8002036:	b083      	sub	sp, #12
 8002038:	af00      	add	r7, sp, #0
 800203a:	6078      	str	r0, [r7, #4]
 800203c:	6039      	str	r1, [r7, #0]
  WRITE_REG(TIMx->RCR, RepetitionCounter);
 800203e:	687b      	ldr	r3, [r7, #4]
 8002040:	683a      	ldr	r2, [r7, #0]
 8002042:	631a      	str	r2, [r3, #48]	; 0x30
}
 8002044:	bf00      	nop
 8002046:	370c      	adds	r7, #12
 8002048:	46bd      	mov	sp, r7
 800204a:	f85d 7b04 	ldr.w	r7, [sp], #4
 800204e:	4770      	bx	lr

08002050 <LL_TIM_OC_SetCompareCH1>:
{
 8002050:	b480      	push	{r7}
 8002052:	b083      	sub	sp, #12
 8002054:	af00      	add	r7, sp, #0
 8002056:	6078      	str	r0, [r7, #4]
 8002058:	6039      	str	r1, [r7, #0]
  WRITE_REG(TIMx->CCR1, CompareValue);
 800205a:	687b      	ldr	r3, [r7, #4]
 800205c:	683a      	ldr	r2, [r7, #0]
 800205e:	635a      	str	r2, [r3, #52]	; 0x34
}
 8002060:	bf00      	nop
 8002062:	370c      	adds	r7, #12
 8002064:	46bd      	mov	sp, r7
 8002066:	f85d 7b04 	ldr.w	r7, [sp], #4
 800206a:	4770      	bx	lr

0800206c <LL_TIM_OC_SetCompareCH2>:
{
 800206c:	b480      	push	{r7}
 800206e:	b083      	sub	sp, #12
 8002070:	af00      	add	r7, sp, #0
 8002072:	6078      	str	r0, [r7, #4]
 8002074:	6039      	str	r1, [r7, #0]
  WRITE_REG(TIMx->CCR2, CompareValue);
 8002076:	687b      	ldr	r3, [r7, #4]
 8002078:	683a      	ldr	r2, [r7, #0]
 800207a:	639a      	str	r2, [r3, #56]	; 0x38
}
 800207c:	bf00      	nop
 800207e:	370c      	adds	r7, #12
 8002080:	46bd      	mov	sp, r7
 8002082:	f85d 7b04 	ldr.w	r7, [sp], #4
 8002086:	4770      	bx	lr

08002088 <LL_TIM_OC_SetCompareCH3>:
{
 8002088:	b480      	push	{r7}
 800208a:	b083      	sub	sp, #12
 800208c:	af00      	add	r7, sp, #0
 800208e:	6078      	str	r0, [r7, #4]
 8002090:	6039      	str	r1, [r7, #0]
  WRITE_REG(TIMx->CCR3, CompareValue);
 8002092:	687b      	ldr	r3, [r7, #4]
 8002094:	683a      	ldr	r2, [r7, #0]
 8002096:	63da      	str	r2, [r3, #60]	; 0x3c
}
 8002098:	bf00      	nop
 800209a:	370c      	adds	r7, #12
 800209c:	46bd      	mov	sp, r7
 800209e:	f85d 7b04 	ldr.w	r7, [sp], #4
 80020a2:	4770      	bx	lr

080020a4 <LL_TIM_OC_SetCompareCH4>:
{
 80020a4:	b480      	push	{r7}
 80020a6:	b083      	sub	sp, #12
 80020a8:	af00      	add	r7, sp, #0
 80020aa:	6078      	str	r0, [r7, #4]
 80020ac:	6039      	str	r1, [r7, #0]
  WRITE_REG(TIMx->CCR4, CompareValue);
 80020ae:	687b      	ldr	r3, [r7, #4]
 80020b0:	683a      	ldr	r2, [r7, #0]
 80020b2:	641a      	str	r2, [r3, #64]	; 0x40
}
 80020b4:	bf00      	nop
 80020b6:	370c      	adds	r7, #12
 80020b8:	46bd      	mov	sp, r7
 80020ba:	f85d 7b04 	ldr.w	r7, [sp], #4
 80020be:	4770      	bx	lr

080020c0 <LL_TIM_OC_SetCompareCH5>:
{
 80020c0:	b480      	push	{r7}
 80020c2:	b083      	sub	sp, #12
 80020c4:	af00      	add	r7, sp, #0
 80020c6:	6078      	str	r0, [r7, #4]
 80020c8:	6039      	str	r1, [r7, #0]
  MODIFY_REG(TIMx->CCR5, TIM_CCR5_CCR5, CompareValue);
 80020ca:	687b      	ldr	r3, [r7, #4]
 80020cc:	6d9b      	ldr	r3, [r3, #88]	; 0x58
 80020ce:	687b      	ldr	r3, [r7, #4]
 80020d0:	683a      	ldr	r2, [r7, #0]
 80020d2:	659a      	str	r2, [r3, #88]	; 0x58
}
 80020d4:	bf00      	nop
 80020d6:	370c      	adds	r7, #12
 80020d8:	46bd      	mov	sp, r7
 80020da:	f85d 7b04 	ldr.w	r7, [sp], #4
 80020de:	4770      	bx	lr

080020e0 <LL_TIM_OC_SetCompareCH6>:
{
 80020e0:	b480      	push	{r7}
 80020e2:	b083      	sub	sp, #12
 80020e4:	af00      	add	r7, sp, #0
 80020e6:	6078      	str	r0, [r7, #4]
 80020e8:	6039      	str	r1, [r7, #0]
  WRITE_REG(TIMx->CCR6, CompareValue);
 80020ea:	687b      	ldr	r3, [r7, #4]
 80020ec:	683a      	ldr	r2, [r7, #0]
 80020ee:	65da      	str	r2, [r3, #92]	; 0x5c
}
 80020f0:	bf00      	nop
 80020f2:	370c      	adds	r7, #12
 80020f4:	46bd      	mov	sp, r7
 80020f6:	f85d 7b04 	ldr.w	r7, [sp], #4
 80020fa:	4770      	bx	lr

080020fc <LL_TIM_GenerateEvent_UPDATE>:
  * @rmtoll EGR          UG            LL_TIM_GenerateEvent_UPDATE
  * @param  TIMx Timer instance
  * @retval None
  */
__STATIC_INLINE void LL_TIM_GenerateEvent_UPDATE(TIM_TypeDef *TIMx)
{
 80020fc:	b480      	push	{r7}
 80020fe:	b083      	sub	sp, #12
 8002100:	af00      	add	r7, sp, #0
 8002102:	6078      	str	r0, [r7, #4]
  SET_BIT(TIMx->EGR, TIM_EGR_UG);
 8002104:	687b      	ldr	r3, [r7, #4]
 8002106:	695b      	ldr	r3, [r3, #20]
 8002108:	f043 0201 	orr.w	r2, r3, #1
 800210c:	687b      	ldr	r3, [r7, #4]
 800210e:	615a      	str	r2, [r3, #20]
}
 8002110:	bf00      	nop
 8002112:	370c      	adds	r7, #12
 8002114:	46bd      	mov	sp, r7
 8002116:	f85d 7b04 	ldr.w	r7, [sp], #4
 800211a:	4770      	bx	lr

0800211c <LL_TIM_Init>:
  * @retval An ErrorStatus enumeration value:
  *          - SUCCESS: TIMx registers are de-initialized
  *          - ERROR: not applicable
  */
ErrorStatus LL_TIM_Init(TIM_TypeDef *TIMx, LL_TIM_InitTypeDef *TIM_InitStruct)
{
 800211c:	b580      	push	{r7, lr}
 800211e:	b084      	sub	sp, #16
 8002120:	af00      	add	r7, sp, #0
 8002122:	6078      	str	r0, [r7, #4]
 8002124:	6039      	str	r1, [r7, #0]
  /* Check the parameters */
  assert_param(IS_TIM_INSTANCE(TIMx));
  assert_param(IS_LL_TIM_COUNTERMODE(TIM_InitStruct->CounterMode));
  assert_param(IS_LL_TIM_CLOCKDIVISION(TIM_InitStruct->ClockDivision));

  tmpcr1 = LL_TIM_ReadReg(TIMx, CR1);
 8002126:	687b      	ldr	r3, [r7, #4]
 8002128:	681b      	ldr	r3, [r3, #0]
 800212a:	60fb      	str	r3, [r7, #12]

  if (IS_TIM_COUNTER_MODE_SELECT_INSTANCE(TIMx))
 800212c:	687b      	ldr	r3, [r7, #4]
 800212e:	4a2b      	ldr	r2, [pc, #172]	; (80021dc <LL_TIM_Init+0xc0>)
 8002130:	4293      	cmp	r3, r2
 8002132:	d003      	beq.n	800213c <LL_TIM_Init+0x20>
 8002134:	687b      	ldr	r3, [r7, #4]
 8002136:	f1b3 4f80 	cmp.w	r3, #1073741824	; 0x40000000
 800213a:	d106      	bne.n	800214a <LL_TIM_Init+0x2e>
  {
    /* Select the Counter Mode */
    MODIFY_REG(tmpcr1, (TIM_CR1_DIR | TIM_CR1_CMS), TIM_InitStruct->CounterMode);
 800213c:	68fb      	ldr	r3, [r7, #12]
 800213e:	f023 0270 	bic.w	r2, r3, #112	; 0x70
 8002142:	683b      	ldr	r3, [r7, #0]
 8002144:	685b      	ldr	r3, [r3, #4]
 8002146:	4313      	orrs	r3, r2
 8002148:	60fb      	str	r3, [r7, #12]
  }

  if (IS_TIM_CLOCK_DIVISION_INSTANCE(TIMx))
 800214a:	687b      	ldr	r3, [r7, #4]
 800214c:	4a23      	ldr	r2, [pc, #140]	; (80021dc <LL_TIM_Init+0xc0>)
 800214e:	4293      	cmp	r3, r2
 8002150:	d00f      	beq.n	8002172 <LL_TIM_Init+0x56>
 8002152:	687b      	ldr	r3, [r7, #4]
 8002154:	f1b3 4f80 	cmp.w	r3, #1073741824	; 0x40000000
 8002158:	d00b      	beq.n	8002172 <LL_TIM_Init+0x56>
 800215a:	687b      	ldr	r3, [r7, #4]
 800215c:	4a20      	ldr	r2, [pc, #128]	; (80021e0 <LL_TIM_Init+0xc4>)
 800215e:	4293      	cmp	r3, r2
 8002160:	d007      	beq.n	8002172 <LL_TIM_Init+0x56>
 8002162:	687b      	ldr	r3, [r7, #4]
 8002164:	4a1f      	ldr	r2, [pc, #124]	; (80021e4 <LL_TIM_Init+0xc8>)
 8002166:	4293      	cmp	r3, r2
 8002168:	d003      	beq.n	8002172 <LL_TIM_Init+0x56>
 800216a:	687b      	ldr	r3, [r7, #4]
 800216c:	4a1e      	ldr	r2, [pc, #120]	; (80021e8 <LL_TIM_Init+0xcc>)
 800216e:	4293      	cmp	r3, r2
 8002170:	d106      	bne.n	8002180 <LL_TIM_Init+0x64>
  {
    /* Set the clock division */
    MODIFY_REG(tmpcr1, TIM_CR1_CKD, TIM_InitStruct->ClockDivision);
 8002172:	68fb      	ldr	r3, [r7, #12]
 8002174:	f423 7240 	bic.w	r2, r3, #768	; 0x300
 8002178:	683b      	ldr	r3, [r7, #0]
 800217a:	68db      	ldr	r3, [r3, #12]
 800217c:	4313      	orrs	r3, r2
 800217e:	60fb      	str	r3, [r7, #12]
  }

  /* Write to TIMx CR1 */
  LL_TIM_WriteReg(TIMx, CR1, tmpcr1);
 8002180:	687b      	ldr	r3, [r7, #4]
 8002182:	68fa      	ldr	r2, [r7, #12]
 8002184:	601a      	str	r2, [r3, #0]

  /* Set the Autoreload value */
  LL_TIM_SetAutoReload(TIMx, TIM_InitStruct->Autoreload);
 8002186:	683b      	ldr	r3, [r7, #0]
 8002188:	689b      	ldr	r3, [r3, #8]
 800218a:	4619      	mov	r1, r3
 800218c:	6878      	ldr	r0, [r7, #4]
 800218e:	f7ff ff43 	bl	8002018 <LL_TIM_SetAutoReload>

  /* Set the Prescaler value */
  LL_TIM_SetPrescaler(TIMx, TIM_InitStruct->Prescaler);
 8002192:	683b      	ldr	r3, [r7, #0]
 8002194:	881b      	ldrh	r3, [r3, #0]
 8002196:	4619      	mov	r1, r3
 8002198:	6878      	ldr	r0, [r7, #4]
 800219a:	f7ff ff2f 	bl	8001ffc <LL_TIM_SetPrescaler>

  if (IS_TIM_REPETITION_COUNTER_INSTANCE(TIMx))
 800219e:	687b      	ldr	r3, [r7, #4]
 80021a0:	4a0e      	ldr	r2, [pc, #56]	; (80021dc <LL_TIM_Init+0xc0>)
 80021a2:	4293      	cmp	r3, r2
 80021a4:	d00b      	beq.n	80021be <LL_TIM_Init+0xa2>
 80021a6:	687b      	ldr	r3, [r7, #4]
 80021a8:	4a0d      	ldr	r2, [pc, #52]	; (80021e0 <LL_TIM_Init+0xc4>)
 80021aa:	4293      	cmp	r3, r2
 80021ac:	d007      	beq.n	80021be <LL_TIM_Init+0xa2>
 80021ae:	687b      	ldr	r3, [r7, #4]
 80021b0:	4a0c      	ldr	r2, [pc, #48]	; (80021e4 <LL_TIM_Init+0xc8>)
 80021b2:	4293      	cmp	r3, r2
 80021b4:	d003      	beq.n	80021be <LL_TIM_Init+0xa2>
 80021b6:	687b      	ldr	r3, [r7, #4]
 80021b8:	4a0b      	ldr	r2, [pc, #44]	; (80021e8 <LL_TIM_Init+0xcc>)
 80021ba:	4293      	cmp	r3, r2
 80021bc:	d105      	bne.n	80021ca <LL_TIM_Init+0xae>
  {
    /* Set the Repetition Counter value */
    LL_TIM_SetRepetitionCounter(TIMx, TIM_InitStruct->RepetitionCounter);
 80021be:	683b      	ldr	r3, [r7, #0]
 80021c0:	691b      	ldr	r3, [r3, #16]
 80021c2:	4619      	mov	r1, r3
 80021c4:	6878      	ldr	r0, [r7, #4]
 80021c6:	f7ff ff35 	bl	8002034 <LL_TIM_SetRepetitionCounter>
  }

  /* Generate an update event to reload the Prescaler
     and the repetition counter value (if applicable) immediately */
  LL_TIM_GenerateEvent_UPDATE(TIMx);
 80021ca:	6878      	ldr	r0, [r7, #4]
 80021cc:	f7ff ff96 	bl	80020fc <LL_TIM_GenerateEvent_UPDATE>

  return SUCCESS;
 80021d0:	2300      	movs	r3, #0
}
 80021d2:	4618      	mov	r0, r3
 80021d4:	3710      	adds	r7, #16
 80021d6:	46bd      	mov	sp, r7
 80021d8:	bd80      	pop	{r7, pc}
 80021da:	bf00      	nop
 80021dc:	40012c00 	.word	0x40012c00
 80021e0:	40014000 	.word	0x40014000
 80021e4:	40014400 	.word	0x40014400
 80021e8:	40014800 	.word	0x40014800

080021ec <LL_TIM_OC_Init>:
  * @retval An ErrorStatus enumeration value:
  *          - SUCCESS: TIMx output channel is initialized
  *          - ERROR: TIMx output channel is not initialized
  */
ErrorStatus LL_TIM_OC_Init(TIM_TypeDef *TIMx, uint32_t Channel, LL_TIM_OC_InitTypeDef *TIM_OC_InitStruct)
{
 80021ec:	b580      	push	{r7, lr}
 80021ee:	b086      	sub	sp, #24
 80021f0:	af00      	add	r7, sp, #0
 80021f2:	60f8      	str	r0, [r7, #12]
 80021f4:	60b9      	str	r1, [r7, #8]
 80021f6:	607a      	str	r2, [r7, #4]
  ErrorStatus result = ERROR;
 80021f8:	2301      	movs	r3, #1
 80021fa:	75fb      	strb	r3, [r7, #23]

  switch (Channel)
 80021fc:	68bb      	ldr	r3, [r7, #8]
 80021fe:	f5b3 1f80 	cmp.w	r3, #1048576	; 0x100000
 8002202:	d045      	beq.n	8002290 <LL_TIM_OC_Init+0xa4>
 8002204:	68bb      	ldr	r3, [r7, #8]
 8002206:	f5b3 1f80 	cmp.w	r3, #1048576	; 0x100000
 800220a:	d848      	bhi.n	800229e <LL_TIM_OC_Init+0xb2>
 800220c:	68bb      	ldr	r3, [r7, #8]
 800220e:	f5b3 3f80 	cmp.w	r3, #65536	; 0x10000
 8002212:	d036      	beq.n	8002282 <LL_TIM_OC_Init+0x96>
 8002214:	68bb      	ldr	r3, [r7, #8]
 8002216:	f5b3 3f80 	cmp.w	r3, #65536	; 0x10000
 800221a:	d840      	bhi.n	800229e <LL_TIM_OC_Init+0xb2>
 800221c:	68bb      	ldr	r3, [r7, #8]
 800221e:	f5b3 5f80 	cmp.w	r3, #4096	; 0x1000
 8002222:	d027      	beq.n	8002274 <LL_TIM_OC_Init+0x88>
 8002224:	68bb      	ldr	r3, [r7, #8]
 8002226:	f5b3 5f80 	cmp.w	r3, #4096	; 0x1000
 800222a:	d838      	bhi.n	800229e <LL_TIM_OC_Init+0xb2>
 800222c:	68bb      	ldr	r3, [r7, #8]
 800222e:	f5b3 7f80 	cmp.w	r3, #256	; 0x100
 8002232:	d018      	beq.n	8002266 <LL_TIM_OC_Init+0x7a>
 8002234:	68bb      	ldr	r3, [r7, #8]
 8002236:	f5b3 7f80 	cmp.w	r3, #256	; 0x100
 800223a:	d830      	bhi.n	800229e <LL_TIM_OC_Init+0xb2>
 800223c:	68bb      	ldr	r3, [r7, #8]
 800223e:	2b01      	cmp	r3, #1
 8002240:	d003      	beq.n	800224a <LL_TIM_OC_Init+0x5e>
 8002242:	68bb      	ldr	r3, [r7, #8]
 8002244:	2b10      	cmp	r3, #16
 8002246:	d007      	beq.n	8002258 <LL_TIM_OC_Init+0x6c>
    case LL_TIM_CHANNEL_CH6:
      result = OC6Config(TIMx, TIM_OC_InitStruct);
      break;
#endif /* TIM_CCER_CC5E */
    default:
      break;
 8002248:	e029      	b.n	800229e <LL_TIM_OC_Init+0xb2>
      result = OC1Config(TIMx, TIM_OC_InitStruct);
 800224a:	6879      	ldr	r1, [r7, #4]
 800224c:	68f8      	ldr	r0, [r7, #12]
 800224e:	f000 f89d 	bl	800238c <OC1Config>
 8002252:	4603      	mov	r3, r0
 8002254:	75fb      	strb	r3, [r7, #23]
      break;
 8002256:	e023      	b.n	80022a0 <LL_TIM_OC_Init+0xb4>
      result = OC2Config(TIMx, TIM_OC_InitStruct);
 8002258:	6879      	ldr	r1, [r7, #4]
 800225a:	68f8      	ldr	r0, [r7, #12]
 800225c:	f000 f910 	bl	8002480 <OC2Config>
 8002260:	4603      	mov	r3, r0
 8002262:	75fb      	strb	r3, [r7, #23]
      break;
 8002264:	e01c      	b.n	80022a0 <LL_TIM_OC_Init+0xb4>
      result = OC3Config(TIMx, TIM_OC_InitStruct);
 8002266:	6879      	ldr	r1, [r7, #4]
 8002268:	68f8      	ldr	r0, [r7, #12]
 800226a:	f000 f987 	bl	800257c <OC3Config>
 800226e:	4603      	mov	r3, r0
 8002270:	75fb      	strb	r3, [r7, #23]
      break;
 8002272:	e015      	b.n	80022a0 <LL_TIM_OC_Init+0xb4>
      result = OC4Config(TIMx, TIM_OC_InitStruct);
 8002274:	6879      	ldr	r1, [r7, #4]
 8002276:	68f8      	ldr	r0, [r7, #12]
 8002278:	f000 f9fe 	bl	8002678 <OC4Config>
 800227c:	4603      	mov	r3, r0
 800227e:	75fb      	strb	r3, [r7, #23]
      break;
 8002280:	e00e      	b.n	80022a0 <LL_TIM_OC_Init+0xb4>
      result = OC5Config(TIMx, TIM_OC_InitStruct);
 8002282:	6879      	ldr	r1, [r7, #4]
 8002284:	68f8      	ldr	r0, [r7, #12]
 8002286:	f000 fa5d 	bl	8002744 <OC5Config>
 800228a:	4603      	mov	r3, r0
 800228c:	75fb      	strb	r3, [r7, #23]
      break;
 800228e:	e007      	b.n	80022a0 <LL_TIM_OC_Init+0xb4>
      result = OC6Config(TIMx, TIM_OC_InitStruct);
 8002290:	6879      	ldr	r1, [r7, #4]
 8002292:	68f8      	ldr	r0, [r7, #12]
 8002294:	f000 fab4 	bl	8002800 <OC6Config>
 8002298:	4603      	mov	r3, r0
 800229a:	75fb      	strb	r3, [r7, #23]
      break;
 800229c:	e000      	b.n	80022a0 <LL_TIM_OC_Init+0xb4>
      break;
 800229e:	bf00      	nop
  }

  return result;
 80022a0:	7dfb      	ldrb	r3, [r7, #23]
}
 80022a2:	4618      	mov	r0, r3
 80022a4:	3718      	adds	r7, #24
 80022a6:	46bd      	mov	sp, r7
 80022a8:	bd80      	pop	{r7, pc}
	...

080022ac <LL_TIM_BDTR_Init>:
  * @retval An ErrorStatus enumeration value:
  *          - SUCCESS: Break and Dead Time is initialized
  *          - ERROR: not applicable
  */
ErrorStatus LL_TIM_BDTR_Init(TIM_TypeDef *TIMx, LL_TIM_BDTR_InitTypeDef *TIM_BDTRInitStruct)
{
 80022ac:	b480      	push	{r7}
 80022ae:	b085      	sub	sp, #20
 80022b0:	af00      	add	r7, sp, #0
 80022b2:	6078      	str	r0, [r7, #4]
 80022b4:	6039      	str	r1, [r7, #0]
  uint32_t tmpbdtr = 0;
 80022b6:	2300      	movs	r3, #0
 80022b8:	60fb      	str	r3, [r7, #12]

  /* Set the Lock level, the Break enable Bit and the Polarity, the OSSR State,
  the OSSI State, the dead time value and the Automatic Output Enable Bit */

  /* Set the BDTR bits */
  MODIFY_REG(tmpbdtr, TIM_BDTR_DTG, TIM_BDTRInitStruct->DeadTime);
 80022ba:	68fb      	ldr	r3, [r7, #12]
 80022bc:	f023 03ff 	bic.w	r3, r3, #255	; 0xff
 80022c0:	683a      	ldr	r2, [r7, #0]
 80022c2:	7b12      	ldrb	r2, [r2, #12]
 80022c4:	4313      	orrs	r3, r2
 80022c6:	60fb      	str	r3, [r7, #12]
  MODIFY_REG(tmpbdtr, TIM_BDTR_LOCK, TIM_BDTRInitStruct->LockLevel);
 80022c8:	68fb      	ldr	r3, [r7, #12]
 80022ca:	f423 7240 	bic.w	r2, r3, #768	; 0x300
 80022ce:	683b      	ldr	r3, [r7, #0]
 80022d0:	689b      	ldr	r3, [r3, #8]
 80022d2:	4313      	orrs	r3, r2
 80022d4:	60fb      	str	r3, [r7, #12]
  MODIFY_REG(tmpbdtr, TIM_BDTR_OSSI, TIM_BDTRInitStruct->OSSIState);
 80022d6:	68fb      	ldr	r3, [r7, #12]
 80022d8:	f423 6280 	bic.w	r2, r3, #1024	; 0x400
 80022dc:	683b      	ldr	r3, [r7, #0]
 80022de:	685b      	ldr	r3, [r3, #4]
 80022e0:	4313      	orrs	r3, r2
 80022e2:	60fb      	str	r3, [r7, #12]
  MODIFY_REG(tmpbdtr, TIM_BDTR_OSSR, TIM_BDTRInitStruct->OSSRState);
 80022e4:	68fb      	ldr	r3, [r7, #12]
 80022e6:	f423 6200 	bic.w	r2, r3, #2048	; 0x800
 80022ea:	683b      	ldr	r3, [r7, #0]
 80022ec:	681b      	ldr	r3, [r3, #0]
 80022ee:	4313      	orrs	r3, r2
 80022f0:	60fb      	str	r3, [r7, #12]
  MODIFY_REG(tmpbdtr, TIM_BDTR_BKE, TIM_BDTRInitStruct->BreakState);
 80022f2:	68fb      	ldr	r3, [r7, #12]
 80022f4:	f423 5380 	bic.w	r3, r3, #4096	; 0x1000
 80022f8:	683a      	ldr	r2, [r7, #0]
 80022fa:	89d2      	ldrh	r2, [r2, #14]
 80022fc:	4313      	orrs	r3, r2
 80022fe:	60fb      	str	r3, [r7, #12]
  MODIFY_REG(tmpbdtr, TIM_BDTR_BKP, TIM_BDTRInitStruct->BreakPolarity);
 8002300:	68fb      	ldr	r3, [r7, #12]
 8002302:	f423 5200 	bic.w	r2, r3, #8192	; 0x2000
 8002306:	683b      	ldr	r3, [r7, #0]
 8002308:	691b      	ldr	r3, [r3, #16]
 800230a:	4313      	orrs	r3, r2
 800230c:	60fb      	str	r3, [r7, #12]
  MODIFY_REG(tmpbdtr, TIM_BDTR_AOE, TIM_BDTRInitStruct->AutomaticOutput);
 800230e:	68fb      	ldr	r3, [r7, #12]
 8002310:	f423 4280 	bic.w	r2, r3, #16384	; 0x4000
 8002314:	683b      	ldr	r3, [r7, #0]
 8002316:	6a5b      	ldr	r3, [r3, #36]	; 0x24
 8002318:	4313      	orrs	r3, r2
 800231a:	60fb      	str	r3, [r7, #12]
  MODIFY_REG(tmpbdtr, TIM_BDTR_MOE, TIM_BDTRInitStruct->AutomaticOutput);
 800231c:	68fb      	ldr	r3, [r7, #12]
 800231e:	f423 4200 	bic.w	r2, r3, #32768	; 0x8000
 8002322:	683b      	ldr	r3, [r7, #0]
 8002324:	6a5b      	ldr	r3, [r3, #36]	; 0x24
 8002326:	4313      	orrs	r3, r2
 8002328:	60fb      	str	r3, [r7, #12]
#if defined(TIM_BDTR_BKF)
  if (IS_TIM_ADVANCED_INSTANCE(TIMx))
 800232a:	687b      	ldr	r3, [r7, #4]
 800232c:	4a16      	ldr	r2, [pc, #88]	; (8002388 <LL_TIM_BDTR_Init+0xdc>)
 800232e:	4293      	cmp	r3, r2
 8002330:	d106      	bne.n	8002340 <LL_TIM_BDTR_Init+0x94>
  {
    assert_param(IS_LL_TIM_BREAK_FILTER(TIM_BDTRInitStruct->BreakFilter));
    MODIFY_REG(tmpbdtr, TIM_BDTR_BKF, TIM_BDTRInitStruct->BreakFilter);
 8002332:	68fb      	ldr	r3, [r7, #12]
 8002334:	f423 2270 	bic.w	r2, r3, #983040	; 0xf0000
 8002338:	683b      	ldr	r3, [r7, #0]
 800233a:	695b      	ldr	r3, [r3, #20]
 800233c:	4313      	orrs	r3, r2
 800233e:	60fb      	str	r3, [r7, #12]
  }
#endif /* TIM_BDTR_BKF */
#if defined(TIM_BDTR_BK2E)

  if (IS_TIM_BKIN2_INSTANCE(TIMx))
 8002340:	687b      	ldr	r3, [r7, #4]
 8002342:	4a11      	ldr	r2, [pc, #68]	; (8002388 <LL_TIM_BDTR_Init+0xdc>)
 8002344:	4293      	cmp	r3, r2
 8002346:	d114      	bne.n	8002372 <LL_TIM_BDTR_Init+0xc6>
    assert_param(IS_LL_TIM_BREAK2_STATE(TIM_BDTRInitStruct->Break2State));
    assert_param(IS_LL_TIM_BREAK2_POLARITY(TIM_BDTRInitStruct->Break2Polarity));
    assert_param(IS_LL_TIM_BREAK2_FILTER(TIM_BDTRInitStruct->Break2Filter));

    /* Set the BREAK2 input related BDTR bit-fields */
    MODIFY_REG(tmpbdtr, TIM_BDTR_BK2F, (TIM_BDTRInitStruct->Break2Filter));
 8002348:	68fb      	ldr	r3, [r7, #12]
 800234a:	f423 0270 	bic.w	r2, r3, #15728640	; 0xf00000
 800234e:	683b      	ldr	r3, [r7, #0]
 8002350:	6a1b      	ldr	r3, [r3, #32]
 8002352:	4313      	orrs	r3, r2
 8002354:	60fb      	str	r3, [r7, #12]
    MODIFY_REG(tmpbdtr, TIM_BDTR_BK2E, TIM_BDTRInitStruct->Break2State);
 8002356:	68fb      	ldr	r3, [r7, #12]
 8002358:	f023 7280 	bic.w	r2, r3, #16777216	; 0x1000000
 800235c:	683b      	ldr	r3, [r7, #0]
 800235e:	699b      	ldr	r3, [r3, #24]
 8002360:	4313      	orrs	r3, r2
 8002362:	60fb      	str	r3, [r7, #12]
    MODIFY_REG(tmpbdtr, TIM_BDTR_BK2P, TIM_BDTRInitStruct->Break2Polarity);
 8002364:	68fb      	ldr	r3, [r7, #12]
 8002366:	f023 7200 	bic.w	r2, r3, #33554432	; 0x2000000
 800236a:	683b      	ldr	r3, [r7, #0]
 800236c:	69db      	ldr	r3, [r3, #28]
 800236e:	4313      	orrs	r3, r2
 8002370:	60fb      	str	r3, [r7, #12]
  }
#endif /* TIM_BDTR_BK2E */

  /* Set TIMx_BDTR */
  LL_TIM_WriteReg(TIMx, BDTR, tmpbdtr);
 8002372:	687b      	ldr	r3, [r7, #4]
 8002374:	68fa      	ldr	r2, [r7, #12]
 8002376:	645a      	str	r2, [r3, #68]	; 0x44

  return SUCCESS;
 8002378:	2300      	movs	r3, #0
}
 800237a:	4618      	mov	r0, r3
 800237c:	3714      	adds	r7, #20
 800237e:	46bd      	mov	sp, r7
 8002380:	f85d 7b04 	ldr.w	r7, [sp], #4
 8002384:	4770      	bx	lr
 8002386:	bf00      	nop
 8002388:	40012c00 	.word	0x40012c00

0800238c <OC1Config>:
  * @retval An ErrorStatus enumeration value:
  *          - SUCCESS: TIMx registers are de-initialized
  *          - ERROR: not applicable
  */
static ErrorStatus OC1Config(TIM_TypeDef *TIMx, LL_TIM_OC_InitTypeDef *TIM_OCInitStruct)
{
 800238c:	b580      	push	{r7, lr}
 800238e:	b086      	sub	sp, #24
 8002390:	af00      	add	r7, sp, #0
 8002392:	6078      	str	r0, [r7, #4]
 8002394:	6039      	str	r1, [r7, #0]
  assert_param(IS_LL_TIM_OCPOLARITY(TIM_OCInitStruct->OCPolarity));
  assert_param(IS_LL_TIM_OCSTATE(TIM_OCInitStruct->OCNState));
  assert_param(IS_LL_TIM_OCPOLARITY(TIM_OCInitStruct->OCNPolarity));

  /* Disable the Channel 1: Reset the CC1E Bit */
  CLEAR_BIT(TIMx->CCER, TIM_CCER_CC1E);
 8002396:	687b      	ldr	r3, [r7, #4]
 8002398:	6a1b      	ldr	r3, [r3, #32]
 800239a:	f023 0201 	bic.w	r2, r3, #1
 800239e:	687b      	ldr	r3, [r7, #4]
 80023a0:	621a      	str	r2, [r3, #32]

  /* Get the TIMx CCER register value */
  tmpccer = LL_TIM_ReadReg(TIMx, CCER);
 80023a2:	687b      	ldr	r3, [r7, #4]
 80023a4:	6a1b      	ldr	r3, [r3, #32]
 80023a6:	617b      	str	r3, [r7, #20]

  /* Get the TIMx CR2 register value */
  tmpcr2 = LL_TIM_ReadReg(TIMx, CR2);
 80023a8:	687b      	ldr	r3, [r7, #4]
 80023aa:	685b      	ldr	r3, [r3, #4]
 80023ac:	613b      	str	r3, [r7, #16]

  /* Get the TIMx CCMR1 register value */
  tmpccmr1 = LL_TIM_ReadReg(TIMx, CCMR1);
 80023ae:	687b      	ldr	r3, [r7, #4]
 80023b0:	699b      	ldr	r3, [r3, #24]
 80023b2:	60fb      	str	r3, [r7, #12]

  /* Reset Capture/Compare selection Bits */
  CLEAR_BIT(tmpccmr1, TIM_CCMR1_CC1S);
 80023b4:	68fb      	ldr	r3, [r7, #12]
 80023b6:	f023 0303 	bic.w	r3, r3, #3
 80023ba:	60fb      	str	r3, [r7, #12]

  /* Set the Output Compare Mode */
  MODIFY_REG(tmpccmr1, TIM_CCMR1_OC1M, TIM_OCInitStruct->OCMode);
 80023bc:	68fb      	ldr	r3, [r7, #12]
 80023be:	f423 3380 	bic.w	r3, r3, #65536	; 0x10000
 80023c2:	f023 0370 	bic.w	r3, r3, #112	; 0x70
 80023c6:	683a      	ldr	r2, [r7, #0]
 80023c8:	6812      	ldr	r2, [r2, #0]
 80023ca:	4313      	orrs	r3, r2
 80023cc:	60fb      	str	r3, [r7, #12]

  /* Set the Output Compare Polarity */
  MODIFY_REG(tmpccer, TIM_CCER_CC1P, TIM_OCInitStruct->OCPolarity);
 80023ce:	697b      	ldr	r3, [r7, #20]
 80023d0:	f023 0202 	bic.w	r2, r3, #2
 80023d4:	683b      	ldr	r3, [r7, #0]
 80023d6:	691b      	ldr	r3, [r3, #16]
 80023d8:	4313      	orrs	r3, r2
 80023da:	617b      	str	r3, [r7, #20]

  /* Set the Output State */
  MODIFY_REG(tmpccer, TIM_CCER_CC1E, TIM_OCInitStruct->OCState);
 80023dc:	697b      	ldr	r3, [r7, #20]
 80023de:	f023 0201 	bic.w	r2, r3, #1
 80023e2:	683b      	ldr	r3, [r7, #0]
 80023e4:	685b      	ldr	r3, [r3, #4]
 80023e6:	4313      	orrs	r3, r2
 80023e8:	617b      	str	r3, [r7, #20]

  if (IS_TIM_BREAK_INSTANCE(TIMx))
 80023ea:	687b      	ldr	r3, [r7, #4]
 80023ec:	4a20      	ldr	r2, [pc, #128]	; (8002470 <OC1Config+0xe4>)
 80023ee:	4293      	cmp	r3, r2
 80023f0:	d00b      	beq.n	800240a <OC1Config+0x7e>
 80023f2:	687b      	ldr	r3, [r7, #4]
 80023f4:	4a1f      	ldr	r2, [pc, #124]	; (8002474 <OC1Config+0xe8>)
 80023f6:	4293      	cmp	r3, r2
 80023f8:	d007      	beq.n	800240a <OC1Config+0x7e>
 80023fa:	687b      	ldr	r3, [r7, #4]
 80023fc:	4a1e      	ldr	r2, [pc, #120]	; (8002478 <OC1Config+0xec>)
 80023fe:	4293      	cmp	r3, r2
 8002400:	d003      	beq.n	800240a <OC1Config+0x7e>
 8002402:	687b      	ldr	r3, [r7, #4]
 8002404:	4a1d      	ldr	r2, [pc, #116]	; (800247c <OC1Config+0xf0>)
 8002406:	4293      	cmp	r3, r2
 8002408:	d11e      	bne.n	8002448 <OC1Config+0xbc>
  {
    assert_param(IS_LL_TIM_OCIDLESTATE(TIM_OCInitStruct->OCNIdleState));
    assert_param(IS_LL_TIM_OCIDLESTATE(TIM_OCInitStruct->OCIdleState));

    /* Set the complementary output Polarity */
    MODIFY_REG(tmpccer, TIM_CCER_CC1NP, TIM_OCInitStruct->OCNPolarity << 2U);
 800240a:	697b      	ldr	r3, [r7, #20]
 800240c:	f023 0208 	bic.w	r2, r3, #8
 8002410:	683b      	ldr	r3, [r7, #0]
 8002412:	695b      	ldr	r3, [r3, #20]
 8002414:	009b      	lsls	r3, r3, #2
 8002416:	4313      	orrs	r3, r2
 8002418:	617b      	str	r3, [r7, #20]

    /* Set the complementary output State */
    MODIFY_REG(tmpccer, TIM_CCER_CC1NE, TIM_OCInitStruct->OCNState << 2U);
 800241a:	697b      	ldr	r3, [r7, #20]
 800241c:	f023 0204 	bic.w	r2, r3, #4
 8002420:	683b      	ldr	r3, [r7, #0]
 8002422:	689b      	ldr	r3, [r3, #8]
 8002424:	009b      	lsls	r3, r3, #2
 8002426:	4313      	orrs	r3, r2
 8002428:	617b      	str	r3, [r7, #20]

    /* Set the Output Idle state */
    MODIFY_REG(tmpcr2, TIM_CR2_OIS1, TIM_OCInitStruct->OCIdleState);
 800242a:	693b      	ldr	r3, [r7, #16]
 800242c:	f423 7280 	bic.w	r2, r3, #256	; 0x100
 8002430:	683b      	ldr	r3, [r7, #0]
 8002432:	699b      	ldr	r3, [r3, #24]
 8002434:	4313      	orrs	r3, r2
 8002436:	613b      	str	r3, [r7, #16]

    /* Set the complementary output Idle state */
    MODIFY_REG(tmpcr2, TIM_CR2_OIS1N, TIM_OCInitStruct->OCNIdleState << 1U);
 8002438:	693b      	ldr	r3, [r7, #16]
 800243a:	f423 7200 	bic.w	r2, r3, #512	; 0x200
 800243e:	683b      	ldr	r3, [r7, #0]
 8002440:	69db      	ldr	r3, [r3, #28]
 8002442:	005b      	lsls	r3, r3, #1
 8002444:	4313      	orrs	r3, r2
 8002446:	613b      	str	r3, [r7, #16]
  }

  /* Write to TIMx CR2 */
  LL_TIM_WriteReg(TIMx, CR2, tmpcr2);
 8002448:	687b      	ldr	r3, [r7, #4]
 800244a:	693a      	ldr	r2, [r7, #16]
 800244c:	605a      	str	r2, [r3, #4]

  /* Write to TIMx CCMR1 */
  LL_TIM_WriteReg(TIMx, CCMR1, tmpccmr1);
 800244e:	687b      	ldr	r3, [r7, #4]
 8002450:	68fa      	ldr	r2, [r7, #12]
 8002452:	619a      	str	r2, [r3, #24]

  /* Set the Capture Compare Register value */
  LL_TIM_OC_SetCompareCH1(TIMx, TIM_OCInitStruct->CompareValue);
 8002454:	683b      	ldr	r3, [r7, #0]
 8002456:	68db      	ldr	r3, [r3, #12]
 8002458:	4619      	mov	r1, r3
 800245a:	6878      	ldr	r0, [r7, #4]
 800245c:	f7ff fdf8 	bl	8002050 <LL_TIM_OC_SetCompareCH1>

  /* Write to TIMx CCER */
  LL_TIM_WriteReg(TIMx, CCER, tmpccer);
 8002460:	687b      	ldr	r3, [r7, #4]
 8002462:	697a      	ldr	r2, [r7, #20]
 8002464:	621a      	str	r2, [r3, #32]

  return SUCCESS;
 8002466:	2300      	movs	r3, #0
}
 8002468:	4618      	mov	r0, r3
 800246a:	3718      	adds	r7, #24
 800246c:	46bd      	mov	sp, r7
 800246e:	bd80      	pop	{r7, pc}
 8002470:	40012c00 	.word	0x40012c00
 8002474:	40014000 	.word	0x40014000
 8002478:	40014400 	.word	0x40014400
 800247c:	40014800 	.word	0x40014800

08002480 <OC2Config>:
  * @retval An ErrorStatus enumeration value:
  *          - SUCCESS: TIMx registers are de-initialized
  *          - ERROR: not applicable
  */
static ErrorStatus OC2Config(TIM_TypeDef *TIMx, LL_TIM_OC_InitTypeDef *TIM_OCInitStruct)
{
 8002480:	b580      	push	{r7, lr}
 8002482:	b086      	sub	sp, #24
 8002484:	af00      	add	r7, sp, #0
 8002486:	6078      	str	r0, [r7, #4]
 8002488:	6039      	str	r1, [r7, #0]
  assert_param(IS_LL_TIM_OCPOLARITY(TIM_OCInitStruct->OCPolarity));
  assert_param(IS_LL_TIM_OCSTATE(TIM_OCInitStruct->OCNState));
  assert_param(IS_LL_TIM_OCPOLARITY(TIM_OCInitStruct->OCNPolarity));

  /* Disable the Channel 2: Reset the CC2E Bit */
  CLEAR_BIT(TIMx->CCER, TIM_CCER_CC2E);
 800248a:	687b      	ldr	r3, [r7, #4]
 800248c:	6a1b      	ldr	r3, [r3, #32]
 800248e:	f023 0210 	bic.w	r2, r3, #16
 8002492:	687b      	ldr	r3, [r7, #4]
 8002494:	621a      	str	r2, [r3, #32]

  /* Get the TIMx CCER register value */
  tmpccer =  LL_TIM_ReadReg(TIMx, CCER);
 8002496:	687b      	ldr	r3, [r7, #4]
 8002498:	6a1b      	ldr	r3, [r3, #32]
 800249a:	617b      	str	r3, [r7, #20]

  /* Get the TIMx CR2 register value */
  tmpcr2 = LL_TIM_ReadReg(TIMx, CR2);
 800249c:	687b      	ldr	r3, [r7, #4]
 800249e:	685b      	ldr	r3, [r3, #4]
 80024a0:	613b      	str	r3, [r7, #16]

  /* Get the TIMx CCMR1 register value */
  tmpccmr1 = LL_TIM_ReadReg(TIMx, CCMR1);
 80024a2:	687b      	ldr	r3, [r7, #4]
 80024a4:	699b      	ldr	r3, [r3, #24]
 80024a6:	60fb      	str	r3, [r7, #12]

  /* Reset Capture/Compare selection Bits */
  CLEAR_BIT(tmpccmr1, TIM_CCMR1_CC2S);
 80024a8:	68fb      	ldr	r3, [r7, #12]
 80024aa:	f423 7340 	bic.w	r3, r3, #768	; 0x300
 80024ae:	60fb      	str	r3, [r7, #12]

  /* Select the Output Compare Mode */
  MODIFY_REG(tmpccmr1, TIM_CCMR1_OC2M, TIM_OCInitStruct->OCMode << 8U);
 80024b0:	68fb      	ldr	r3, [r7, #12]
 80024b2:	f023 7380 	bic.w	r3, r3, #16777216	; 0x1000000
 80024b6:	f423 43e0 	bic.w	r3, r3, #28672	; 0x7000
 80024ba:	683a      	ldr	r2, [r7, #0]
 80024bc:	6812      	ldr	r2, [r2, #0]
 80024be:	0212      	lsls	r2, r2, #8
 80024c0:	4313      	orrs	r3, r2
 80024c2:	60fb      	str	r3, [r7, #12]

  /* Set the Output Compare Polarity */
  MODIFY_REG(tmpccer, TIM_CCER_CC2P, TIM_OCInitStruct->OCPolarity << 4U);
 80024c4:	697b      	ldr	r3, [r7, #20]
 80024c6:	f023 0220 	bic.w	r2, r3, #32
 80024ca:	683b      	ldr	r3, [r7, #0]
 80024cc:	691b      	ldr	r3, [r3, #16]
 80024ce:	011b      	lsls	r3, r3, #4
 80024d0:	4313      	orrs	r3, r2
 80024d2:	617b      	str	r3, [r7, #20]

  /* Set the Output State */
  MODIFY_REG(tmpccer, TIM_CCER_CC2E, TIM_OCInitStruct->OCState << 4U);
 80024d4:	697b      	ldr	r3, [r7, #20]
 80024d6:	f023 0210 	bic.w	r2, r3, #16
 80024da:	683b      	ldr	r3, [r7, #0]
 80024dc:	685b      	ldr	r3, [r3, #4]
 80024de:	011b      	lsls	r3, r3, #4
 80024e0:	4313      	orrs	r3, r2
 80024e2:	617b      	str	r3, [r7, #20]

  if (IS_TIM_BREAK_INSTANCE(TIMx))
 80024e4:	687b      	ldr	r3, [r7, #4]
 80024e6:	4a21      	ldr	r2, [pc, #132]	; (800256c <OC2Config+0xec>)
 80024e8:	4293      	cmp	r3, r2
 80024ea:	d00b      	beq.n	8002504 <OC2Config+0x84>
 80024ec:	687b      	ldr	r3, [r7, #4]
 80024ee:	4a20      	ldr	r2, [pc, #128]	; (8002570 <OC2Config+0xf0>)
 80024f0:	4293      	cmp	r3, r2
 80024f2:	d007      	beq.n	8002504 <OC2Config+0x84>
 80024f4:	687b      	ldr	r3, [r7, #4]
 80024f6:	4a1f      	ldr	r2, [pc, #124]	; (8002574 <OC2Config+0xf4>)
 80024f8:	4293      	cmp	r3, r2
 80024fa:	d003      	beq.n	8002504 <OC2Config+0x84>
 80024fc:	687b      	ldr	r3, [r7, #4]
 80024fe:	4a1e      	ldr	r2, [pc, #120]	; (8002578 <OC2Config+0xf8>)
 8002500:	4293      	cmp	r3, r2
 8002502:	d11f      	bne.n	8002544 <OC2Config+0xc4>
  {
    assert_param(IS_LL_TIM_OCIDLESTATE(TIM_OCInitStruct->OCNIdleState));
    assert_param(IS_LL_TIM_OCIDLESTATE(TIM_OCInitStruct->OCIdleState));

    /* Set the complementary output Polarity */
    MODIFY_REG(tmpccer, TIM_CCER_CC2NP, TIM_OCInitStruct->OCNPolarity << 6U);
 8002504:	697b      	ldr	r3, [r7, #20]
 8002506:	f023 0280 	bic.w	r2, r3, #128	; 0x80
 800250a:	683b      	ldr	r3, [r7, #0]
 800250c:	695b      	ldr	r3, [r3, #20]
 800250e:	019b      	lsls	r3, r3, #6
 8002510:	4313      	orrs	r3, r2
 8002512:	617b      	str	r3, [r7, #20]

    /* Set the complementary output State */
    MODIFY_REG(tmpccer, TIM_CCER_CC2NE, TIM_OCInitStruct->OCNState << 6U);
 8002514:	697b      	ldr	r3, [r7, #20]
 8002516:	f023 0240 	bic.w	r2, r3, #64	; 0x40
 800251a:	683b      	ldr	r3, [r7, #0]
 800251c:	689b      	ldr	r3, [r3, #8]
 800251e:	019b      	lsls	r3, r3, #6
 8002520:	4313      	orrs	r3, r2
 8002522:	617b      	str	r3, [r7, #20]

    /* Set the Output Idle state */
    MODIFY_REG(tmpcr2, TIM_CR2_OIS2, TIM_OCInitStruct->OCIdleState << 2U);
 8002524:	693b      	ldr	r3, [r7, #16]
 8002526:	f423 6280 	bic.w	r2, r3, #1024	; 0x400
 800252a:	683b      	ldr	r3, [r7, #0]
 800252c:	699b      	ldr	r3, [r3, #24]
 800252e:	009b      	lsls	r3, r3, #2
 8002530:	4313      	orrs	r3, r2
 8002532:	613b      	str	r3, [r7, #16]

#if defined(STM32F373xC) || defined(STM32F378xx)
#else
    /* Set the complementary output Idle state */
    MODIFY_REG(tmpcr2, TIM_CR2_OIS2N, TIM_OCInitStruct->OCNIdleState << 3U);
 8002534:	693b      	ldr	r3, [r7, #16]
 8002536:	f423 6200 	bic.w	r2, r3, #2048	; 0x800
 800253a:	683b      	ldr	r3, [r7, #0]
 800253c:	69db      	ldr	r3, [r3, #28]
 800253e:	00db      	lsls	r3, r3, #3
 8002540:	4313      	orrs	r3, r2
 8002542:	613b      	str	r3, [r7, #16]
#endif
  }

  /* Write to TIMx CR2 */
  LL_TIM_WriteReg(TIMx, CR2, tmpcr2);
 8002544:	687b      	ldr	r3, [r7, #4]
 8002546:	693a      	ldr	r2, [r7, #16]
 8002548:	605a      	str	r2, [r3, #4]

  /* Write to TIMx CCMR1 */
  LL_TIM_WriteReg(TIMx, CCMR1, tmpccmr1);
 800254a:	687b      	ldr	r3, [r7, #4]
 800254c:	68fa      	ldr	r2, [r7, #12]
 800254e:	619a      	str	r2, [r3, #24]

  /* Set the Capture Compare Register value */
  LL_TIM_OC_SetCompareCH2(TIMx, TIM_OCInitStruct->CompareValue);
 8002550:	683b      	ldr	r3, [r7, #0]
 8002552:	68db      	ldr	r3, [r3, #12]
 8002554:	4619      	mov	r1, r3
 8002556:	6878      	ldr	r0, [r7, #4]
 8002558:	f7ff fd88 	bl	800206c <LL_TIM_OC_SetCompareCH2>

  /* Write to TIMx CCER */
  LL_TIM_WriteReg(TIMx, CCER, tmpccer);
 800255c:	687b      	ldr	r3, [r7, #4]
 800255e:	697a      	ldr	r2, [r7, #20]
 8002560:	621a      	str	r2, [r3, #32]

  return SUCCESS;
 8002562:	2300      	movs	r3, #0
}
 8002564:	4618      	mov	r0, r3
 8002566:	3718      	adds	r7, #24
 8002568:	46bd      	mov	sp, r7
 800256a:	bd80      	pop	{r7, pc}
 800256c:	40012c00 	.word	0x40012c00
 8002570:	40014000 	.word	0x40014000
 8002574:	40014400 	.word	0x40014400
 8002578:	40014800 	.word	0x40014800

0800257c <OC3Config>:
  * @retval An ErrorStatus enumeration value:
  *          - SUCCESS: TIMx registers are de-initialized
  *          - ERROR: not applicable
  */
static ErrorStatus OC3Config(TIM_TypeDef *TIMx, LL_TIM_OC_InitTypeDef *TIM_OCInitStruct)
{
 800257c:	b580      	push	{r7, lr}
 800257e:	b086      	sub	sp, #24
 8002580:	af00      	add	r7, sp, #0
 8002582:	6078      	str	r0, [r7, #4]
 8002584:	6039      	str	r1, [r7, #0]
  assert_param(IS_LL_TIM_OCPOLARITY(TIM_OCInitStruct->OCPolarity));
  assert_param(IS_LL_TIM_OCSTATE(TIM_OCInitStruct->OCNState));
  assert_param(IS_LL_TIM_OCPOLARITY(TIM_OCInitStruct->OCNPolarity));

  /* Disable the Channel 3: Reset the CC3E Bit */
  CLEAR_BIT(TIMx->CCER, TIM_CCER_CC3E);
 8002586:	687b      	ldr	r3, [r7, #4]
 8002588:	6a1b      	ldr	r3, [r3, #32]
 800258a:	f423 7280 	bic.w	r2, r3, #256	; 0x100
 800258e:	687b      	ldr	r3, [r7, #4]
 8002590:	621a      	str	r2, [r3, #32]

  /* Get the TIMx CCER register value */
  tmpccer =  LL_TIM_ReadReg(TIMx, CCER);
 8002592:	687b      	ldr	r3, [r7, #4]
 8002594:	6a1b      	ldr	r3, [r3, #32]
 8002596:	617b      	str	r3, [r7, #20]

  /* Get the TIMx CR2 register value */
  tmpcr2 = LL_TIM_ReadReg(TIMx, CR2);
 8002598:	687b      	ldr	r3, [r7, #4]
 800259a:	685b      	ldr	r3, [r3, #4]
 800259c:	613b      	str	r3, [r7, #16]

  /* Get the TIMx CCMR2 register value */
  tmpccmr2 = LL_TIM_ReadReg(TIMx, CCMR2);
 800259e:	687b      	ldr	r3, [r7, #4]
 80025a0:	69db      	ldr	r3, [r3, #28]
 80025a2:	60fb      	str	r3, [r7, #12]

  /* Reset Capture/Compare selection Bits */
  CLEAR_BIT(tmpccmr2, TIM_CCMR2_CC3S);
 80025a4:	68fb      	ldr	r3, [r7, #12]
 80025a6:	f023 0303 	bic.w	r3, r3, #3
 80025aa:	60fb      	str	r3, [r7, #12]

  /* Select the Output Compare Mode */
  MODIFY_REG(tmpccmr2, TIM_CCMR2_OC3M, TIM_OCInitStruct->OCMode);
 80025ac:	68fb      	ldr	r3, [r7, #12]
 80025ae:	f423 3380 	bic.w	r3, r3, #65536	; 0x10000
 80025b2:	f023 0370 	bic.w	r3, r3, #112	; 0x70
 80025b6:	683a      	ldr	r2, [r7, #0]
 80025b8:	6812      	ldr	r2, [r2, #0]
 80025ba:	4313      	orrs	r3, r2
 80025bc:	60fb      	str	r3, [r7, #12]

  /* Set the Output Compare Polarity */
  MODIFY_REG(tmpccer, TIM_CCER_CC3P, TIM_OCInitStruct->OCPolarity << 8U);
 80025be:	697b      	ldr	r3, [r7, #20]
 80025c0:	f423 7200 	bic.w	r2, r3, #512	; 0x200
 80025c4:	683b      	ldr	r3, [r7, #0]
 80025c6:	691b      	ldr	r3, [r3, #16]
 80025c8:	021b      	lsls	r3, r3, #8
 80025ca:	4313      	orrs	r3, r2
 80025cc:	617b      	str	r3, [r7, #20]

  /* Set the Output State */
  MODIFY_REG(tmpccer, TIM_CCER_CC3E, TIM_OCInitStruct->OCState << 8U);
 80025ce:	697b      	ldr	r3, [r7, #20]
 80025d0:	f423 7280 	bic.w	r2, r3, #256	; 0x100
 80025d4:	683b      	ldr	r3, [r7, #0]
 80025d6:	685b      	ldr	r3, [r3, #4]
 80025d8:	021b      	lsls	r3, r3, #8
 80025da:	4313      	orrs	r3, r2
 80025dc:	617b      	str	r3, [r7, #20]

  if (IS_TIM_BREAK_INSTANCE(TIMx))
 80025de:	687b      	ldr	r3, [r7, #4]
 80025e0:	4a21      	ldr	r2, [pc, #132]	; (8002668 <OC3Config+0xec>)
 80025e2:	4293      	cmp	r3, r2
 80025e4:	d00b      	beq.n	80025fe <OC3Config+0x82>
 80025e6:	687b      	ldr	r3, [r7, #4]
 80025e8:	4a20      	ldr	r2, [pc, #128]	; (800266c <OC3Config+0xf0>)
 80025ea:	4293      	cmp	r3, r2
 80025ec:	d007      	beq.n	80025fe <OC3Config+0x82>
 80025ee:	687b      	ldr	r3, [r7, #4]
 80025f0:	4a1f      	ldr	r2, [pc, #124]	; (8002670 <OC3Config+0xf4>)
 80025f2:	4293      	cmp	r3, r2
 80025f4:	d003      	beq.n	80025fe <OC3Config+0x82>
 80025f6:	687b      	ldr	r3, [r7, #4]
 80025f8:	4a1e      	ldr	r2, [pc, #120]	; (8002674 <OC3Config+0xf8>)
 80025fa:	4293      	cmp	r3, r2
 80025fc:	d11f      	bne.n	800263e <OC3Config+0xc2>
  {
    assert_param(IS_LL_TIM_OCIDLESTATE(TIM_OCInitStruct->OCNIdleState));
    assert_param(IS_LL_TIM_OCIDLESTATE(TIM_OCInitStruct->OCIdleState));

    /* Set the complementary output Polarity */
    MODIFY_REG(tmpccer, TIM_CCER_CC3NP, TIM_OCInitStruct->OCNPolarity << 10U);
 80025fe:	697b      	ldr	r3, [r7, #20]
 8002600:	f423 6200 	bic.w	r2, r3, #2048	; 0x800
 8002604:	683b      	ldr	r3, [r7, #0]
 8002606:	695b      	ldr	r3, [r3, #20]
 8002608:	029b      	lsls	r3, r3, #10
 800260a:	4313      	orrs	r3, r2
 800260c:	617b      	str	r3, [r7, #20]

    /* Set the complementary output State */
    MODIFY_REG(tmpccer, TIM_CCER_CC3NE, TIM_OCInitStruct->OCNState << 10U);
 800260e:	697b      	ldr	r3, [r7, #20]
 8002610:	f423 6280 	bic.w	r2, r3, #1024	; 0x400
 8002614:	683b      	ldr	r3, [r7, #0]
 8002616:	689b      	ldr	r3, [r3, #8]
 8002618:	029b      	lsls	r3, r3, #10
 800261a:	4313      	orrs	r3, r2
 800261c:	617b      	str	r3, [r7, #20]

#if defined(STM32F373xC) || defined(STM32F378xx)
#else
    /* Set the Output Idle state */
    MODIFY_REG(tmpcr2, TIM_CR2_OIS3, TIM_OCInitStruct->OCIdleState << 4U);
 800261e:	693b      	ldr	r3, [r7, #16]
 8002620:	f423 5280 	bic.w	r2, r3, #4096	; 0x1000
 8002624:	683b      	ldr	r3, [r7, #0]
 8002626:	699b      	ldr	r3, [r3, #24]
 8002628:	011b      	lsls	r3, r3, #4
 800262a:	4313      	orrs	r3, r2
 800262c:	613b      	str	r3, [r7, #16]

    /* Set the complementary output Idle state */
    MODIFY_REG(tmpcr2, TIM_CR2_OIS3N, TIM_OCInitStruct->OCNIdleState << 5U);
 800262e:	693b      	ldr	r3, [r7, #16]
 8002630:	f423 5200 	bic.w	r2, r3, #8192	; 0x2000
 8002634:	683b      	ldr	r3, [r7, #0]
 8002636:	69db      	ldr	r3, [r3, #28]
 8002638:	015b      	lsls	r3, r3, #5
 800263a:	4313      	orrs	r3, r2
 800263c:	613b      	str	r3, [r7, #16]
#endif
  }

  /* Write to TIMx CR2 */
  LL_TIM_WriteReg(TIMx, CR2, tmpcr2);
 800263e:	687b      	ldr	r3, [r7, #4]
 8002640:	693a      	ldr	r2, [r7, #16]
 8002642:	605a      	str	r2, [r3, #4]

  /* Write to TIMx CCMR2 */
  LL_TIM_WriteReg(TIMx, CCMR2, tmpccmr2);
 8002644:	687b      	ldr	r3, [r7, #4]
 8002646:	68fa      	ldr	r2, [r7, #12]
 8002648:	61da      	str	r2, [r3, #28]

  /* Set the Capture Compare Register value */
  LL_TIM_OC_SetCompareCH3(TIMx, TIM_OCInitStruct->CompareValue);
 800264a:	683b      	ldr	r3, [r7, #0]
 800264c:	68db      	ldr	r3, [r3, #12]
 800264e:	4619      	mov	r1, r3
 8002650:	6878      	ldr	r0, [r7, #4]
 8002652:	f7ff fd19 	bl	8002088 <LL_TIM_OC_SetCompareCH3>

  /* Write to TIMx CCER */
  LL_TIM_WriteReg(TIMx, CCER, tmpccer);
 8002656:	687b      	ldr	r3, [r7, #4]
 8002658:	697a      	ldr	r2, [r7, #20]
 800265a:	621a      	str	r2, [r3, #32]

  return SUCCESS;
 800265c:	2300      	movs	r3, #0
}
 800265e:	4618      	mov	r0, r3
 8002660:	3718      	adds	r7, #24
 8002662:	46bd      	mov	sp, r7
 8002664:	bd80      	pop	{r7, pc}
 8002666:	bf00      	nop
 8002668:	40012c00 	.word	0x40012c00
 800266c:	40014000 	.word	0x40014000
 8002670:	40014400 	.word	0x40014400
 8002674:	40014800 	.word	0x40014800

08002678 <OC4Config>:
  * @retval An ErrorStatus enumeration value:
  *          - SUCCESS: TIMx registers are de-initialized
  *          - ERROR: not applicable
  */
static ErrorStatus OC4Config(TIM_TypeDef *TIMx, LL_TIM_OC_InitTypeDef *TIM_OCInitStruct)
{
 8002678:	b580      	push	{r7, lr}
 800267a:	b086      	sub	sp, #24
 800267c:	af00      	add	r7, sp, #0
 800267e:	6078      	str	r0, [r7, #4]
 8002680:	6039      	str	r1, [r7, #0]
  assert_param(IS_LL_TIM_OCPOLARITY(TIM_OCInitStruct->OCPolarity));
  assert_param(IS_LL_TIM_OCPOLARITY(TIM_OCInitStruct->OCNPolarity));
  assert_param(IS_LL_TIM_OCSTATE(TIM_OCInitStruct->OCNState));

  /* Disable the Channel 4: Reset the CC4E Bit */
  CLEAR_BIT(TIMx->CCER, TIM_CCER_CC4E);
 8002682:	687b      	ldr	r3, [r7, #4]
 8002684:	6a1b      	ldr	r3, [r3, #32]
 8002686:	f423 5280 	bic.w	r2, r3, #4096	; 0x1000
 800268a:	687b      	ldr	r3, [r7, #4]
 800268c:	621a      	str	r2, [r3, #32]

  /* Get the TIMx CCER register value */
  tmpccer = LL_TIM_ReadReg(TIMx, CCER);
 800268e:	687b      	ldr	r3, [r7, #4]
 8002690:	6a1b      	ldr	r3, [r3, #32]
 8002692:	613b      	str	r3, [r7, #16]

  /* Get the TIMx CR2 register value */
  tmpcr2 =  LL_TIM_ReadReg(TIMx, CR2);
 8002694:	687b      	ldr	r3, [r7, #4]
 8002696:	685b      	ldr	r3, [r3, #4]
 8002698:	617b      	str	r3, [r7, #20]

  /* Get the TIMx CCMR2 register value */
  tmpccmr2 = LL_TIM_ReadReg(TIMx, CCMR2);
 800269a:	687b      	ldr	r3, [r7, #4]
 800269c:	69db      	ldr	r3, [r3, #28]
 800269e:	60fb      	str	r3, [r7, #12]

  /* Reset Capture/Compare selection Bits */
  CLEAR_BIT(tmpccmr2, TIM_CCMR2_CC4S);
 80026a0:	68fb      	ldr	r3, [r7, #12]
 80026a2:	f423 7340 	bic.w	r3, r3, #768	; 0x300
 80026a6:	60fb      	str	r3, [r7, #12]

  /* Select the Output Compare Mode */
  MODIFY_REG(tmpccmr2, TIM_CCMR2_OC4M, TIM_OCInitStruct->OCMode << 8U);
 80026a8:	68fb      	ldr	r3, [r7, #12]
 80026aa:	f023 7380 	bic.w	r3, r3, #16777216	; 0x1000000
 80026ae:	f423 43e0 	bic.w	r3, r3, #28672	; 0x7000
 80026b2:	683a      	ldr	r2, [r7, #0]
 80026b4:	6812      	ldr	r2, [r2, #0]
 80026b6:	0212      	lsls	r2, r2, #8
 80026b8:	4313      	orrs	r3, r2
 80026ba:	60fb      	str	r3, [r7, #12]

  /* Set the Output Compare Polarity */
  MODIFY_REG(tmpccer, TIM_CCER_CC4P, TIM_OCInitStruct->OCPolarity << 12U);
 80026bc:	693b      	ldr	r3, [r7, #16]
 80026be:	f423 5200 	bic.w	r2, r3, #8192	; 0x2000
 80026c2:	683b      	ldr	r3, [r7, #0]
 80026c4:	691b      	ldr	r3, [r3, #16]
 80026c6:	031b      	lsls	r3, r3, #12
 80026c8:	4313      	orrs	r3, r2
 80026ca:	613b      	str	r3, [r7, #16]

  /* Set the Output State */
  MODIFY_REG(tmpccer, TIM_CCER_CC4E, TIM_OCInitStruct->OCState << 12U);
 80026cc:	693b      	ldr	r3, [r7, #16]
 80026ce:	f423 5280 	bic.w	r2, r3, #4096	; 0x1000
 80026d2:	683b      	ldr	r3, [r7, #0]
 80026d4:	685b      	ldr	r3, [r3, #4]
 80026d6:	031b      	lsls	r3, r3, #12
 80026d8:	4313      	orrs	r3, r2
 80026da:	613b      	str	r3, [r7, #16]

  if (IS_TIM_BREAK_INSTANCE(TIMx))
 80026dc:	687b      	ldr	r3, [r7, #4]
 80026de:	4a15      	ldr	r2, [pc, #84]	; (8002734 <OC4Config+0xbc>)
 80026e0:	4293      	cmp	r3, r2
 80026e2:	d00b      	beq.n	80026fc <OC4Config+0x84>
 80026e4:	687b      	ldr	r3, [r7, #4]
 80026e6:	4a14      	ldr	r2, [pc, #80]	; (8002738 <OC4Config+0xc0>)
 80026e8:	4293      	cmp	r3, r2
 80026ea:	d007      	beq.n	80026fc <OC4Config+0x84>
 80026ec:	687b      	ldr	r3, [r7, #4]
 80026ee:	4a13      	ldr	r2, [pc, #76]	; (800273c <OC4Config+0xc4>)
 80026f0:	4293      	cmp	r3, r2
 80026f2:	d003      	beq.n	80026fc <OC4Config+0x84>
 80026f4:	687b      	ldr	r3, [r7, #4]
 80026f6:	4a12      	ldr	r2, [pc, #72]	; (8002740 <OC4Config+0xc8>)
 80026f8:	4293      	cmp	r3, r2
 80026fa:	d107      	bne.n	800270c <OC4Config+0x94>
    assert_param(IS_LL_TIM_OCIDLESTATE(TIM_OCInitStruct->OCIdleState));

#if defined(STM32F373xC) || defined(STM32F378xx)
#else
    /* Set the Output Idle state */
    MODIFY_REG(tmpcr2, TIM_CR2_OIS4, TIM_OCInitStruct->OCIdleState << 6U);
 80026fc:	697b      	ldr	r3, [r7, #20]
 80026fe:	f423 4280 	bic.w	r2, r3, #16384	; 0x4000
 8002702:	683b      	ldr	r3, [r7, #0]
 8002704:	699b      	ldr	r3, [r3, #24]
 8002706:	019b      	lsls	r3, r3, #6
 8002708:	4313      	orrs	r3, r2
 800270a:	617b      	str	r3, [r7, #20]
#endif
  }

  /* Write to TIMx CR2 */
  LL_TIM_WriteReg(TIMx, CR2, tmpcr2);
 800270c:	687b      	ldr	r3, [r7, #4]
 800270e:	697a      	ldr	r2, [r7, #20]
 8002710:	605a      	str	r2, [r3, #4]

  /* Write to TIMx CCMR2 */
  LL_TIM_WriteReg(TIMx, CCMR2, tmpccmr2);
 8002712:	687b      	ldr	r3, [r7, #4]
 8002714:	68fa      	ldr	r2, [r7, #12]
 8002716:	61da      	str	r2, [r3, #28]

  /* Set the Capture Compare Register value */
  LL_TIM_OC_SetCompareCH4(TIMx, TIM_OCInitStruct->CompareValue);
 8002718:	683b      	ldr	r3, [r7, #0]
 800271a:	68db      	ldr	r3, [r3, #12]
 800271c:	4619      	mov	r1, r3
 800271e:	6878      	ldr	r0, [r7, #4]
 8002720:	f7ff fcc0 	bl	80020a4 <LL_TIM_OC_SetCompareCH4>

  /* Write to TIMx CCER */
  LL_TIM_WriteReg(TIMx, CCER, tmpccer);
 8002724:	687b      	ldr	r3, [r7, #4]
 8002726:	693a      	ldr	r2, [r7, #16]
 8002728:	621a      	str	r2, [r3, #32]

  return SUCCESS;
 800272a:	2300      	movs	r3, #0
}
 800272c:	4618      	mov	r0, r3
 800272e:	3718      	adds	r7, #24
 8002730:	46bd      	mov	sp, r7
 8002732:	bd80      	pop	{r7, pc}
 8002734:	40012c00 	.word	0x40012c00
 8002738:	40014000 	.word	0x40014000
 800273c:	40014400 	.word	0x40014400
 8002740:	40014800 	.word	0x40014800

08002744 <OC5Config>:
  * @retval An ErrorStatus enumeration value:
  *          - SUCCESS: TIMx registers are de-initialized
  *          - ERROR: not applicable
  */
static ErrorStatus OC5Config(TIM_TypeDef *TIMx, LL_TIM_OC_InitTypeDef *TIM_OCInitStruct)
{
 8002744:	b580      	push	{r7, lr}
 8002746:	b084      	sub	sp, #16
 8002748:	af00      	add	r7, sp, #0
 800274a:	6078      	str	r0, [r7, #4]
 800274c:	6039      	str	r1, [r7, #0]
  assert_param(IS_LL_TIM_OCPOLARITY(TIM_OCInitStruct->OCPolarity));
  assert_param(IS_LL_TIM_OCPOLARITY(TIM_OCInitStruct->OCNPolarity));
  assert_param(IS_LL_TIM_OCSTATE(TIM_OCInitStruct->OCNState));

  /* Disable the Channel 5: Reset the CC5E Bit */
  CLEAR_BIT(TIMx->CCER, TIM_CCER_CC5E);
 800274e:	687b      	ldr	r3, [r7, #4]
 8002750:	6a1b      	ldr	r3, [r3, #32]
 8002752:	f423 3280 	bic.w	r2, r3, #65536	; 0x10000
 8002756:	687b      	ldr	r3, [r7, #4]
 8002758:	621a      	str	r2, [r3, #32]

  /* Get the TIMx CCER register value */
  tmpccer = LL_TIM_ReadReg(TIMx, CCER);
 800275a:	687b      	ldr	r3, [r7, #4]
 800275c:	6a1b      	ldr	r3, [r3, #32]
 800275e:	60fb      	str	r3, [r7, #12]

  /* Get the TIMx CCMR3 register value */
  tmpccmr3 = LL_TIM_ReadReg(TIMx, CCMR3);
 8002760:	687b      	ldr	r3, [r7, #4]
 8002762:	6d5b      	ldr	r3, [r3, #84]	; 0x54
 8002764:	60bb      	str	r3, [r7, #8]

  /* Select the Output Compare Mode */
  MODIFY_REG(tmpccmr3, TIM_CCMR3_OC5M, TIM_OCInitStruct->OCMode);
 8002766:	68bb      	ldr	r3, [r7, #8]
 8002768:	f423 3380 	bic.w	r3, r3, #65536	; 0x10000
 800276c:	f023 0370 	bic.w	r3, r3, #112	; 0x70
 8002770:	683a      	ldr	r2, [r7, #0]
 8002772:	6812      	ldr	r2, [r2, #0]
 8002774:	4313      	orrs	r3, r2
 8002776:	60bb      	str	r3, [r7, #8]

  /* Set the Output Compare Polarity */
  MODIFY_REG(tmpccer, TIM_CCER_CC5P, TIM_OCInitStruct->OCPolarity << 16U);
 8002778:	68fb      	ldr	r3, [r7, #12]
 800277a:	f423 3200 	bic.w	r2, r3, #131072	; 0x20000
 800277e:	683b      	ldr	r3, [r7, #0]
 8002780:	691b      	ldr	r3, [r3, #16]
 8002782:	041b      	lsls	r3, r3, #16
 8002784:	4313      	orrs	r3, r2
 8002786:	60fb      	str	r3, [r7, #12]

  /* Set the Output State */
  MODIFY_REG(tmpccer, TIM_CCER_CC5E, TIM_OCInitStruct->OCState << 16U);
 8002788:	68fb      	ldr	r3, [r7, #12]
 800278a:	f423 3280 	bic.w	r2, r3, #65536	; 0x10000
 800278e:	683b      	ldr	r3, [r7, #0]
 8002790:	685b      	ldr	r3, [r3, #4]
 8002792:	041b      	lsls	r3, r3, #16
 8002794:	4313      	orrs	r3, r2
 8002796:	60fb      	str	r3, [r7, #12]

  if (IS_TIM_BREAK_INSTANCE(TIMx))
 8002798:	687b      	ldr	r3, [r7, #4]
 800279a:	4a15      	ldr	r2, [pc, #84]	; (80027f0 <OC5Config+0xac>)
 800279c:	4293      	cmp	r3, r2
 800279e:	d00b      	beq.n	80027b8 <OC5Config+0x74>
 80027a0:	687b      	ldr	r3, [r7, #4]
 80027a2:	4a14      	ldr	r2, [pc, #80]	; (80027f4 <OC5Config+0xb0>)
 80027a4:	4293      	cmp	r3, r2
 80027a6:	d007      	beq.n	80027b8 <OC5Config+0x74>
 80027a8:	687b      	ldr	r3, [r7, #4]
 80027aa:	4a13      	ldr	r2, [pc, #76]	; (80027f8 <OC5Config+0xb4>)
 80027ac:	4293      	cmp	r3, r2
 80027ae:	d003      	beq.n	80027b8 <OC5Config+0x74>
 80027b0:	687b      	ldr	r3, [r7, #4]
 80027b2:	4a12      	ldr	r2, [pc, #72]	; (80027fc <OC5Config+0xb8>)
 80027b4:	4293      	cmp	r3, r2
 80027b6:	d109      	bne.n	80027cc <OC5Config+0x88>
  {
    assert_param(IS_LL_TIM_OCIDLESTATE(TIM_OCInitStruct->OCNIdleState));
    assert_param(IS_LL_TIM_OCIDLESTATE(TIM_OCInitStruct->OCIdleState));

    /* Set the Output Idle state */
    MODIFY_REG(TIMx->CR2, TIM_CR2_OIS5, TIM_OCInitStruct->OCIdleState << 8U);
 80027b8:	687b      	ldr	r3, [r7, #4]
 80027ba:	685b      	ldr	r3, [r3, #4]
 80027bc:	f423 3280 	bic.w	r2, r3, #65536	; 0x10000
 80027c0:	683b      	ldr	r3, [r7, #0]
 80027c2:	699b      	ldr	r3, [r3, #24]
 80027c4:	021b      	lsls	r3, r3, #8
 80027c6:	431a      	orrs	r2, r3
 80027c8:	687b      	ldr	r3, [r7, #4]
 80027ca:	605a      	str	r2, [r3, #4]

  }

  /* Write to TIMx CCMR3 */
  LL_TIM_WriteReg(TIMx, CCMR3, tmpccmr3);
 80027cc:	687b      	ldr	r3, [r7, #4]
 80027ce:	68ba      	ldr	r2, [r7, #8]
 80027d0:	655a      	str	r2, [r3, #84]	; 0x54

  /* Set the Capture Compare Register value */
  LL_TIM_OC_SetCompareCH5(TIMx, TIM_OCInitStruct->CompareValue);
 80027d2:	683b      	ldr	r3, [r7, #0]
 80027d4:	68db      	ldr	r3, [r3, #12]
 80027d6:	4619      	mov	r1, r3
 80027d8:	6878      	ldr	r0, [r7, #4]
 80027da:	f7ff fc71 	bl	80020c0 <LL_TIM_OC_SetCompareCH5>

  /* Write to TIMx CCER */
  LL_TIM_WriteReg(TIMx, CCER, tmpccer);
 80027de:	687b      	ldr	r3, [r7, #4]
 80027e0:	68fa      	ldr	r2, [r7, #12]
 80027e2:	621a      	str	r2, [r3, #32]

  return SUCCESS;
 80027e4:	2300      	movs	r3, #0
}
 80027e6:	4618      	mov	r0, r3
 80027e8:	3710      	adds	r7, #16
 80027ea:	46bd      	mov	sp, r7
 80027ec:	bd80      	pop	{r7, pc}
 80027ee:	bf00      	nop
 80027f0:	40012c00 	.word	0x40012c00
 80027f4:	40014000 	.word	0x40014000
 80027f8:	40014400 	.word	0x40014400
 80027fc:	40014800 	.word	0x40014800

08002800 <OC6Config>:
  * @retval An ErrorStatus enumeration value:
  *          - SUCCESS: TIMx registers are de-initialized
  *          - ERROR: not applicable
  */
static ErrorStatus OC6Config(TIM_TypeDef *TIMx, LL_TIM_OC_InitTypeDef *TIM_OCInitStruct)
{
 8002800:	b580      	push	{r7, lr}
 8002802:	b084      	sub	sp, #16
 8002804:	af00      	add	r7, sp, #0
 8002806:	6078      	str	r0, [r7, #4]
 8002808:	6039      	str	r1, [r7, #0]
  assert_param(IS_LL_TIM_OCPOLARITY(TIM_OCInitStruct->OCPolarity));
  assert_param(IS_LL_TIM_OCPOLARITY(TIM_OCInitStruct->OCNPolarity));
  assert_param(IS_LL_TIM_OCSTATE(TIM_OCInitStruct->OCNState));

  /* Disable the Channel 5: Reset the CC6E Bit */
  CLEAR_BIT(TIMx->CCER, TIM_CCER_CC6E);
 800280a:	687b      	ldr	r3, [r7, #4]
 800280c:	6a1b      	ldr	r3, [r3, #32]
 800280e:	f423 1280 	bic.w	r2, r3, #1048576	; 0x100000
 8002812:	687b      	ldr	r3, [r7, #4]
 8002814:	621a      	str	r2, [r3, #32]

  /* Get the TIMx CCER register value */
  tmpccer = LL_TIM_ReadReg(TIMx, CCER);
 8002816:	687b      	ldr	r3, [r7, #4]
 8002818:	6a1b      	ldr	r3, [r3, #32]
 800281a:	60fb      	str	r3, [r7, #12]

  /* Get the TIMx CCMR3 register value */
  tmpccmr3 = LL_TIM_ReadReg(TIMx, CCMR3);
 800281c:	687b      	ldr	r3, [r7, #4]
 800281e:	6d5b      	ldr	r3, [r3, #84]	; 0x54
 8002820:	60bb      	str	r3, [r7, #8]

  /* Select the Output Compare Mode */
  MODIFY_REG(tmpccmr3, TIM_CCMR3_OC6M, TIM_OCInitStruct->OCMode << 8U);
 8002822:	68bb      	ldr	r3, [r7, #8]
 8002824:	f023 7380 	bic.w	r3, r3, #16777216	; 0x1000000
 8002828:	f423 43e0 	bic.w	r3, r3, #28672	; 0x7000
 800282c:	683a      	ldr	r2, [r7, #0]
 800282e:	6812      	ldr	r2, [r2, #0]
 8002830:	0212      	lsls	r2, r2, #8
 8002832:	4313      	orrs	r3, r2
 8002834:	60bb      	str	r3, [r7, #8]

  /* Set the Output Compare Polarity */
  MODIFY_REG(tmpccer, TIM_CCER_CC6P, TIM_OCInitStruct->OCPolarity << 20U);
 8002836:	68fb      	ldr	r3, [r7, #12]
 8002838:	f423 1200 	bic.w	r2, r3, #2097152	; 0x200000
 800283c:	683b      	ldr	r3, [r7, #0]
 800283e:	691b      	ldr	r3, [r3, #16]
 8002840:	051b      	lsls	r3, r3, #20
 8002842:	4313      	orrs	r3, r2
 8002844:	60fb      	str	r3, [r7, #12]

  /* Set the Output State */
  MODIFY_REG(tmpccer, TIM_CCER_CC6E, TIM_OCInitStruct->OCState << 20U);
 8002846:	68fb      	ldr	r3, [r7, #12]
 8002848:	f423 1280 	bic.w	r2, r3, #1048576	; 0x100000
 800284c:	683b      	ldr	r3, [r7, #0]
 800284e:	685b      	ldr	r3, [r3, #4]
 8002850:	051b      	lsls	r3, r3, #20
 8002852:	4313      	orrs	r3, r2
 8002854:	60fb      	str	r3, [r7, #12]

  if (IS_TIM_BREAK_INSTANCE(TIMx))
 8002856:	687b      	ldr	r3, [r7, #4]
 8002858:	4a14      	ldr	r2, [pc, #80]	; (80028ac <OC6Config+0xac>)
 800285a:	4293      	cmp	r3, r2
 800285c:	d00b      	beq.n	8002876 <OC6Config+0x76>
 800285e:	687b      	ldr	r3, [r7, #4]
 8002860:	4a13      	ldr	r2, [pc, #76]	; (80028b0 <OC6Config+0xb0>)
 8002862:	4293      	cmp	r3, r2
 8002864:	d007      	beq.n	8002876 <OC6Config+0x76>
 8002866:	687b      	ldr	r3, [r7, #4]
 8002868:	4a12      	ldr	r2, [pc, #72]	; (80028b4 <OC6Config+0xb4>)
 800286a:	4293      	cmp	r3, r2
 800286c:	d003      	beq.n	8002876 <OC6Config+0x76>
 800286e:	687b      	ldr	r3, [r7, #4]
 8002870:	4a11      	ldr	r2, [pc, #68]	; (80028b8 <OC6Config+0xb8>)
 8002872:	4293      	cmp	r3, r2
 8002874:	d109      	bne.n	800288a <OC6Config+0x8a>
  {
    assert_param(IS_LL_TIM_OCIDLESTATE(TIM_OCInitStruct->OCNIdleState));
    assert_param(IS_LL_TIM_OCIDLESTATE(TIM_OCInitStruct->OCIdleState));

    /* Set the Output Idle state */
    MODIFY_REG(TIMx->CR2, TIM_CR2_OIS6, TIM_OCInitStruct->OCIdleState << 10U);
 8002876:	687b      	ldr	r3, [r7, #4]
 8002878:	685b      	ldr	r3, [r3, #4]
 800287a:	f423 2280 	bic.w	r2, r3, #262144	; 0x40000
 800287e:	683b      	ldr	r3, [r7, #0]
 8002880:	699b      	ldr	r3, [r3, #24]
 8002882:	029b      	lsls	r3, r3, #10
 8002884:	431a      	orrs	r2, r3
 8002886:	687b      	ldr	r3, [r7, #4]
 8002888:	605a      	str	r2, [r3, #4]
  }

  /* Write to TIMx CCMR3 */
  LL_TIM_WriteReg(TIMx, CCMR3, tmpccmr3);
 800288a:	687b      	ldr	r3, [r7, #4]
 800288c:	68ba      	ldr	r2, [r7, #8]
 800288e:	655a      	str	r2, [r3, #84]	; 0x54

  /* Set the Capture Compare Register value */
  LL_TIM_OC_SetCompareCH6(TIMx, TIM_OCInitStruct->CompareValue);
 8002890:	683b      	ldr	r3, [r7, #0]
 8002892:	68db      	ldr	r3, [r3, #12]
 8002894:	4619      	mov	r1, r3
 8002896:	6878      	ldr	r0, [r7, #4]
 8002898:	f7ff fc22 	bl	80020e0 <LL_TIM_OC_SetCompareCH6>

  /* Write to TIMx CCER */
  LL_TIM_WriteReg(TIMx, CCER, tmpccer);
 800289c:	687b      	ldr	r3, [r7, #4]
 800289e:	68fa      	ldr	r2, [r7, #12]
 80028a0:	621a      	str	r2, [r3, #32]

  return SUCCESS;
 80028a2:	2300      	movs	r3, #0
}
 80028a4:	4618      	mov	r0, r3
 80028a6:	3710      	adds	r7, #16
 80028a8:	46bd      	mov	sp, r7
 80028aa:	bd80      	pop	{r7, pc}
 80028ac:	40012c00 	.word	0x40012c00
 80028b0:	40014000 	.word	0x40014000
 80028b4:	40014400 	.word	0x40014400
 80028b8:	40014800 	.word	0x40014800

080028bc <LL_USART_IsEnabled>:
{
 80028bc:	b480      	push	{r7}
 80028be:	b083      	sub	sp, #12
 80028c0:	af00      	add	r7, sp, #0
 80028c2:	6078      	str	r0, [r7, #4]
  return ((READ_BIT(USARTx->CR1, USART_CR1_UE) == (USART_CR1_UE)) ? 1UL : 0UL);
 80028c4:	687b      	ldr	r3, [r7, #4]
 80028c6:	681b      	ldr	r3, [r3, #0]
 80028c8:	f003 0301 	and.w	r3, r3, #1
 80028cc:	2b01      	cmp	r3, #1
 80028ce:	d101      	bne.n	80028d4 <LL_USART_IsEnabled+0x18>
 80028d0:	2301      	movs	r3, #1
 80028d2:	e000      	b.n	80028d6 <LL_USART_IsEnabled+0x1a>
 80028d4:	2300      	movs	r3, #0
}
 80028d6:	4618      	mov	r0, r3
 80028d8:	370c      	adds	r7, #12
 80028da:	46bd      	mov	sp, r7
 80028dc:	f85d 7b04 	ldr.w	r7, [sp], #4
 80028e0:	4770      	bx	lr

080028e2 <LL_USART_SetStopBitsLength>:
{
 80028e2:	b480      	push	{r7}
 80028e4:	b083      	sub	sp, #12
 80028e6:	af00      	add	r7, sp, #0
 80028e8:	6078      	str	r0, [r7, #4]
 80028ea:	6039      	str	r1, [r7, #0]
  MODIFY_REG(USARTx->CR2, USART_CR2_STOP, StopBits);
 80028ec:	687b      	ldr	r3, [r7, #4]
 80028ee:	685b      	ldr	r3, [r3, #4]
 80028f0:	f423 5240 	bic.w	r2, r3, #12288	; 0x3000
 80028f4:	683b      	ldr	r3, [r7, #0]
 80028f6:	431a      	orrs	r2, r3
 80028f8:	687b      	ldr	r3, [r7, #4]
 80028fa:	605a      	str	r2, [r3, #4]
}
 80028fc:	bf00      	nop
 80028fe:	370c      	adds	r7, #12
 8002900:	46bd      	mov	sp, r7
 8002902:	f85d 7b04 	ldr.w	r7, [sp], #4
 8002906:	4770      	bx	lr

08002908 <LL_USART_SetHWFlowCtrl>:
{
 8002908:	b480      	push	{r7}
 800290a:	b083      	sub	sp, #12
 800290c:	af00      	add	r7, sp, #0
 800290e:	6078      	str	r0, [r7, #4]
 8002910:	6039      	str	r1, [r7, #0]
  MODIFY_REG(USARTx->CR3, USART_CR3_RTSE | USART_CR3_CTSE, HardwareFlowControl);
 8002912:	687b      	ldr	r3, [r7, #4]
 8002914:	689b      	ldr	r3, [r3, #8]
 8002916:	f423 7240 	bic.w	r2, r3, #768	; 0x300
 800291a:	683b      	ldr	r3, [r7, #0]
 800291c:	431a      	orrs	r2, r3
 800291e:	687b      	ldr	r3, [r7, #4]
 8002920:	609a      	str	r2, [r3, #8]
}
 8002922:	bf00      	nop
 8002924:	370c      	adds	r7, #12
 8002926:	46bd      	mov	sp, r7
 8002928:	f85d 7b04 	ldr.w	r7, [sp], #4
 800292c:	4770      	bx	lr

0800292e <LL_USART_SetBaudRate>:
{
 800292e:	b480      	push	{r7}
 8002930:	b087      	sub	sp, #28
 8002932:	af00      	add	r7, sp, #0
 8002934:	60f8      	str	r0, [r7, #12]
 8002936:	60b9      	str	r1, [r7, #8]
 8002938:	607a      	str	r2, [r7, #4]
 800293a:	603b      	str	r3, [r7, #0]
  if (OverSampling == LL_USART_OVERSAMPLING_8)
 800293c:	687b      	ldr	r3, [r7, #4]
 800293e:	f5b3 4f00 	cmp.w	r3, #32768	; 0x8000
 8002942:	d11a      	bne.n	800297a <LL_USART_SetBaudRate+0x4c>
    usartdiv = (uint16_t)(__LL_USART_DIV_SAMPLING8(PeriphClk, BaudRate));
 8002944:	68bb      	ldr	r3, [r7, #8]
 8002946:	005a      	lsls	r2, r3, #1
 8002948:	683b      	ldr	r3, [r7, #0]
 800294a:	085b      	lsrs	r3, r3, #1
 800294c:	441a      	add	r2, r3
 800294e:	683b      	ldr	r3, [r7, #0]
 8002950:	fbb2 f3f3 	udiv	r3, r2, r3
 8002954:	b29b      	uxth	r3, r3
 8002956:	617b      	str	r3, [r7, #20]
    brrtemp = usartdiv & 0xFFF0U;
 8002958:	697a      	ldr	r2, [r7, #20]
 800295a:	f64f 73f0 	movw	r3, #65520	; 0xfff0
 800295e:	4013      	ands	r3, r2
 8002960:	613b      	str	r3, [r7, #16]
    brrtemp |= (uint16_t)((usartdiv & (uint16_t)0x000FU) >> 1U);
 8002962:	697b      	ldr	r3, [r7, #20]
 8002964:	085b      	lsrs	r3, r3, #1
 8002966:	b29b      	uxth	r3, r3
 8002968:	f003 0307 	and.w	r3, r3, #7
 800296c:	693a      	ldr	r2, [r7, #16]
 800296e:	4313      	orrs	r3, r2
 8002970:	613b      	str	r3, [r7, #16]
    USARTx->BRR = brrtemp;
 8002972:	68fb      	ldr	r3, [r7, #12]
 8002974:	693a      	ldr	r2, [r7, #16]
 8002976:	60da      	str	r2, [r3, #12]
}
 8002978:	e00a      	b.n	8002990 <LL_USART_SetBaudRate+0x62>
    USARTx->BRR = (uint16_t)(__LL_USART_DIV_SAMPLING16(PeriphClk, BaudRate));
 800297a:	683b      	ldr	r3, [r7, #0]
 800297c:	085a      	lsrs	r2, r3, #1
 800297e:	68bb      	ldr	r3, [r7, #8]
 8002980:	441a      	add	r2, r3
 8002982:	683b      	ldr	r3, [r7, #0]
 8002984:	fbb2 f3f3 	udiv	r3, r2, r3
 8002988:	b29b      	uxth	r3, r3
 800298a:	461a      	mov	r2, r3
 800298c:	68fb      	ldr	r3, [r7, #12]
 800298e:	60da      	str	r2, [r3, #12]
}
 8002990:	bf00      	nop
 8002992:	371c      	adds	r7, #28
 8002994:	46bd      	mov	sp, r7
 8002996:	f85d 7b04 	ldr.w	r7, [sp], #4
 800299a:	4770      	bx	lr

0800299c <LL_USART_Init>:
  * @retval An ErrorStatus enumeration value:
  *          - SUCCESS: USART registers are initialized according to USART_InitStruct content
  *          - ERROR: Problem occurred during USART Registers initialization
  */
ErrorStatus LL_USART_Init(USART_TypeDef *USARTx, LL_USART_InitTypeDef *USART_InitStruct)
{
 800299c:	b580      	push	{r7, lr}
 800299e:	b088      	sub	sp, #32
 80029a0:	af00      	add	r7, sp, #0
 80029a2:	6078      	str	r0, [r7, #4]
 80029a4:	6039      	str	r1, [r7, #0]
  ErrorStatus status = ERROR;
 80029a6:	2301      	movs	r3, #1
 80029a8:	77fb      	strb	r3, [r7, #31]
  uint32_t periphclk = LL_RCC_PERIPH_FREQUENCY_NO;
 80029aa:	2300      	movs	r3, #0
 80029ac:	61bb      	str	r3, [r7, #24]
  assert_param(IS_LL_USART_HWCONTROL(USART_InitStruct->HardwareFlowControl));
  assert_param(IS_LL_USART_OVERSAMPLING(USART_InitStruct->OverSampling));

  /* USART needs to be in disabled state, in order to be able to configure some bits in
     CRx registers */
  if (LL_USART_IsEnabled(USARTx) == 0U)
 80029ae:	6878      	ldr	r0, [r7, #4]
 80029b0:	f7ff ff84 	bl	80028bc <LL_USART_IsEnabled>
 80029b4:	4603      	mov	r3, r0
 80029b6:	2b00      	cmp	r3, #0
 80029b8:	d14e      	bne.n	8002a58 <LL_USART_Init+0xbc>
     * - DataWidth:          USART_CR1_M bits according to USART_InitStruct->DataWidth value
     * - Parity:             USART_CR1_PCE, USART_CR1_PS bits according to USART_InitStruct->Parity value
     * - TransferDirection:  USART_CR1_TE, USART_CR1_RE bits according to USART_InitStruct->TransferDirection value
     * - Oversampling:       USART_CR1_OVER8 bit according to USART_InitStruct->OverSampling value.
     */
    MODIFY_REG(USARTx->CR1,
 80029ba:	687b      	ldr	r3, [r7, #4]
 80029bc:	681a      	ldr	r2, [r3, #0]
 80029be:	4b29      	ldr	r3, [pc, #164]	; (8002a64 <LL_USART_Init+0xc8>)
 80029c0:	4013      	ands	r3, r2
 80029c2:	683a      	ldr	r2, [r7, #0]
 80029c4:	6851      	ldr	r1, [r2, #4]
 80029c6:	683a      	ldr	r2, [r7, #0]
 80029c8:	68d2      	ldr	r2, [r2, #12]
 80029ca:	4311      	orrs	r1, r2
 80029cc:	683a      	ldr	r2, [r7, #0]
 80029ce:	6912      	ldr	r2, [r2, #16]
 80029d0:	4311      	orrs	r1, r2
 80029d2:	683a      	ldr	r2, [r7, #0]
 80029d4:	6992      	ldr	r2, [r2, #24]
 80029d6:	430a      	orrs	r2, r1
 80029d8:	431a      	orrs	r2, r3
 80029da:	687b      	ldr	r3, [r7, #4]
 80029dc:	601a      	str	r2, [r3, #0]
    /*---------------------------- USART CR2 Configuration ---------------------
     * Configure USARTx CR2 (Stop bits) with parameters:
     * - Stop Bits:          USART_CR2_STOP bits according to USART_InitStruct->StopBits value.
     * - CLKEN, CPOL, CPHA and LBCL bits are to be configured using LL_USART_ClockInit().
     */
    LL_USART_SetStopBitsLength(USARTx, USART_InitStruct->StopBits);
 80029de:	683b      	ldr	r3, [r7, #0]
 80029e0:	689b      	ldr	r3, [r3, #8]
 80029e2:	4619      	mov	r1, r3
 80029e4:	6878      	ldr	r0, [r7, #4]
 80029e6:	f7ff ff7c 	bl	80028e2 <LL_USART_SetStopBitsLength>
    /*---------------------------- USART CR3 Configuration ---------------------
     * Configure USARTx CR3 (Hardware Flow Control) with parameters:
     * - HardwareFlowControl: USART_CR3_RTSE, USART_CR3_CTSE bits according to
     *   USART_InitStruct->HardwareFlowControl value.
     */
    LL_USART_SetHWFlowCtrl(USARTx, USART_InitStruct->HardwareFlowControl);
 80029ea:	683b      	ldr	r3, [r7, #0]
 80029ec:	695b      	ldr	r3, [r3, #20]
 80029ee:	4619      	mov	r1, r3
 80029f0:	6878      	ldr	r0, [r7, #4]
 80029f2:	f7ff ff89 	bl	8002908 <LL_USART_SetHWFlowCtrl>

    /*---------------------------- USART BRR Configuration ---------------------
     * Retrieve Clock frequency used for USART Peripheral
     */
    if (USARTx == USART1)
 80029f6:	687b      	ldr	r3, [r7, #4]
 80029f8:	4a1b      	ldr	r2, [pc, #108]	; (8002a68 <LL_USART_Init+0xcc>)
 80029fa:	4293      	cmp	r3, r2
 80029fc:	d104      	bne.n	8002a08 <LL_USART_Init+0x6c>
    {
      periphclk = LL_RCC_GetUSARTClockFreq(LL_RCC_USART1_CLKSOURCE);
 80029fe:	2000      	movs	r0, #0
 8002a00:	f7ff fa16 	bl	8001e30 <LL_RCC_GetUSARTClockFreq>
 8002a04:	61b8      	str	r0, [r7, #24]
 8002a06:	e016      	b.n	8002a36 <LL_USART_Init+0x9a>
    }
    else if (USARTx == USART2)
 8002a08:	687b      	ldr	r3, [r7, #4]
 8002a0a:	4a18      	ldr	r2, [pc, #96]	; (8002a6c <LL_USART_Init+0xd0>)
 8002a0c:	4293      	cmp	r3, r2
 8002a0e:	d107      	bne.n	8002a20 <LL_USART_Init+0x84>
    {
#if defined(RCC_CFGR3_USART2SW)
      periphclk = LL_RCC_GetUSARTClockFreq(LL_RCC_USART2_CLKSOURCE);
#else
      /* USART2 clock is PCLK */
      LL_RCC_GetSystemClocksFreq(&RCC_Clocks);
 8002a10:	f107 0308 	add.w	r3, r7, #8
 8002a14:	4618      	mov	r0, r3
 8002a16:	f7ff f9e5 	bl	8001de4 <LL_RCC_GetSystemClocksFreq>
      periphclk = RCC_Clocks.PCLK1_Frequency;
 8002a1a:	693b      	ldr	r3, [r7, #16]
 8002a1c:	61bb      	str	r3, [r7, #24]
 8002a1e:	e00a      	b.n	8002a36 <LL_USART_Init+0x9a>
#endif
    }
    else if (USARTx == USART3)
 8002a20:	687b      	ldr	r3, [r7, #4]
 8002a22:	4a13      	ldr	r2, [pc, #76]	; (8002a70 <LL_USART_Init+0xd4>)
 8002a24:	4293      	cmp	r3, r2
 8002a26:	d106      	bne.n	8002a36 <LL_USART_Init+0x9a>
    {
#if defined(RCC_CFGR3_USART3SW)
      periphclk = LL_RCC_GetUSARTClockFreq(LL_RCC_USART3_CLKSOURCE);
#else
      /* USART3 clock is PCLK */
      LL_RCC_GetSystemClocksFreq(&RCC_Clocks);
 8002a28:	f107 0308 	add.w	r3, r7, #8
 8002a2c:	4618      	mov	r0, r3
 8002a2e:	f7ff f9d9 	bl	8001de4 <LL_RCC_GetSystemClocksFreq>
      periphclk = RCC_Clocks.PCLK1_Frequency;
 8002a32:	693b      	ldr	r3, [r7, #16]
 8002a34:	61bb      	str	r3, [r7, #24]

    /* Configure the USART Baud Rate :
       - valid baud rate value (different from 0) is required
       - Peripheral clock as returned by RCC service, should be valid (different from 0).
    */
    if ((periphclk != LL_RCC_PERIPH_FREQUENCY_NO)
 8002a36:	69bb      	ldr	r3, [r7, #24]
 8002a38:	2b00      	cmp	r3, #0
 8002a3a:	d00d      	beq.n	8002a58 <LL_USART_Init+0xbc>
        && (USART_InitStruct->BaudRate != 0U))
 8002a3c:	683b      	ldr	r3, [r7, #0]
 8002a3e:	681b      	ldr	r3, [r3, #0]
 8002a40:	2b00      	cmp	r3, #0
 8002a42:	d009      	beq.n	8002a58 <LL_USART_Init+0xbc>
    {
      status = SUCCESS;
 8002a44:	2300      	movs	r3, #0
 8002a46:	77fb      	strb	r3, [r7, #31]
      LL_USART_SetBaudRate(USARTx,
 8002a48:	683b      	ldr	r3, [r7, #0]
 8002a4a:	699a      	ldr	r2, [r3, #24]
 8002a4c:	683b      	ldr	r3, [r7, #0]
 8002a4e:	681b      	ldr	r3, [r3, #0]
 8002a50:	69b9      	ldr	r1, [r7, #24]
 8002a52:	6878      	ldr	r0, [r7, #4]
 8002a54:	f7ff ff6b 	bl	800292e <LL_USART_SetBaudRate>
      assert_param(IS_LL_USART_BRR_MIN(USARTx->BRR));
    }
  }
  /* Endif (=> USART not in Disabled state => return ERROR) */

  return (status);
 8002a58:	7ffb      	ldrb	r3, [r7, #31]
}
 8002a5a:	4618      	mov	r0, r3
 8002a5c:	3720      	adds	r7, #32
 8002a5e:	46bd      	mov	sp, r7
 8002a60:	bd80      	pop	{r7, pc}
 8002a62:	bf00      	nop
 8002a64:	efff69f3 	.word	0xefff69f3
 8002a68:	40013800 	.word	0x40013800
 8002a6c:	40004400 	.word	0x40004400
 8002a70:	40004800 	.word	0x40004800

08002a74 <LL_InitTick>:
  *         configuration by calling this function, for a delay use rather osDelay RTOS service.
  * @param  Ticks Number of ticks
  * @retval None
  */
__STATIC_INLINE void LL_InitTick(uint32_t HCLKFrequency, uint32_t Ticks)
{
 8002a74:	b480      	push	{r7}
 8002a76:	b083      	sub	sp, #12
 8002a78:	af00      	add	r7, sp, #0
 8002a7a:	6078      	str	r0, [r7, #4]
 8002a7c:	6039      	str	r1, [r7, #0]
  /* Configure the SysTick to have interrupt in 1ms time base */
  SysTick->LOAD  = (uint32_t)((HCLKFrequency / Ticks) - 1UL);  /* set reload register */
 8002a7e:	687a      	ldr	r2, [r7, #4]
 8002a80:	683b      	ldr	r3, [r7, #0]
 8002a82:	fbb2 f3f3 	udiv	r3, r2, r3
 8002a86:	4a07      	ldr	r2, [pc, #28]	; (8002aa4 <LL_InitTick+0x30>)
 8002a88:	3b01      	subs	r3, #1
 8002a8a:	6053      	str	r3, [r2, #4]
  SysTick->VAL   = 0UL;                                       /* Load the SysTick Counter Value */
 8002a8c:	4b05      	ldr	r3, [pc, #20]	; (8002aa4 <LL_InitTick+0x30>)
 8002a8e:	2200      	movs	r2, #0
 8002a90:	609a      	str	r2, [r3, #8]
  SysTick->CTRL  = SysTick_CTRL_CLKSOURCE_Msk |
 8002a92:	4b04      	ldr	r3, [pc, #16]	; (8002aa4 <LL_InitTick+0x30>)
 8002a94:	2205      	movs	r2, #5
 8002a96:	601a      	str	r2, [r3, #0]
                   SysTick_CTRL_ENABLE_Msk;                   /* Enable the Systick Timer */
}
 8002a98:	bf00      	nop
 8002a9a:	370c      	adds	r7, #12
 8002a9c:	46bd      	mov	sp, r7
 8002a9e:	f85d 7b04 	ldr.w	r7, [sp], #4
 8002aa2:	4770      	bx	lr
 8002aa4:	e000e010 	.word	0xe000e010

08002aa8 <LL_Init1msTick>:
  * @param  HCLKFrequency HCLK frequency in Hz
  * @note   HCLK frequency can be calculated thanks to RCC helper macro or function @ref LL_RCC_GetSystemClocksFreq
  * @retval None
  */
void LL_Init1msTick(uint32_t HCLKFrequency)
{
 8002aa8:	b580      	push	{r7, lr}
 8002aaa:	b082      	sub	sp, #8
 8002aac:	af00      	add	r7, sp, #0
 8002aae:	6078      	str	r0, [r7, #4]
  /* Use frequency provided in argument */
  LL_InitTick(HCLKFrequency, 1000U);
 8002ab0:	f44f 717a 	mov.w	r1, #1000	; 0x3e8
 8002ab4:	6878      	ldr	r0, [r7, #4]
 8002ab6:	f7ff ffdd 	bl	8002a74 <LL_InitTick>
}
 8002aba:	bf00      	nop
 8002abc:	3708      	adds	r7, #8
 8002abe:	46bd      	mov	sp, r7
 8002ac0:	bd80      	pop	{r7, pc}
	...

08002ac4 <LL_SetSystemCoreClock>:
  * @note   Variable can be calculated also through SystemCoreClockUpdate function.
  * @param  HCLKFrequency HCLK frequency in Hz (can be calculated thanks to RCC helper macro)
  * @retval None
  */
void LL_SetSystemCoreClock(uint32_t HCLKFrequency)
{
 8002ac4:	b480      	push	{r7}
 8002ac6:	b083      	sub	sp, #12
 8002ac8:	af00      	add	r7, sp, #0
 8002aca:	6078      	str	r0, [r7, #4]
  /* HCLK clock frequency */
  SystemCoreClock = HCLKFrequency;
 8002acc:	4a04      	ldr	r2, [pc, #16]	; (8002ae0 <LL_SetSystemCoreClock+0x1c>)
 8002ace:	687b      	ldr	r3, [r7, #4]
 8002ad0:	6013      	str	r3, [r2, #0]
}
 8002ad2:	bf00      	nop
 8002ad4:	370c      	adds	r7, #12
 8002ad6:	46bd      	mov	sp, r7
 8002ad8:	f85d 7b04 	ldr.w	r7, [sp], #4
 8002adc:	4770      	bx	lr
 8002ade:	bf00      	nop
 8002ae0:	20000008 	.word	0x20000008

08002ae4 <__libc_init_array>:
 8002ae4:	b570      	push	{r4, r5, r6, lr}
 8002ae6:	4d0d      	ldr	r5, [pc, #52]	; (8002b1c <__libc_init_array+0x38>)
 8002ae8:	4c0d      	ldr	r4, [pc, #52]	; (8002b20 <__libc_init_array+0x3c>)
 8002aea:	1b64      	subs	r4, r4, r5
 8002aec:	10a4      	asrs	r4, r4, #2
 8002aee:	2600      	movs	r6, #0
 8002af0:	42a6      	cmp	r6, r4
 8002af2:	d109      	bne.n	8002b08 <__libc_init_array+0x24>
 8002af4:	4d0b      	ldr	r5, [pc, #44]	; (8002b24 <__libc_init_array+0x40>)
 8002af6:	4c0c      	ldr	r4, [pc, #48]	; (8002b28 <__libc_init_array+0x44>)
 8002af8:	f000 f820 	bl	8002b3c <_init>
 8002afc:	1b64      	subs	r4, r4, r5
 8002afe:	10a4      	asrs	r4, r4, #2
 8002b00:	2600      	movs	r6, #0
 8002b02:	42a6      	cmp	r6, r4
 8002b04:	d105      	bne.n	8002b12 <__libc_init_array+0x2e>
 8002b06:	bd70      	pop	{r4, r5, r6, pc}
 8002b08:	f855 3b04 	ldr.w	r3, [r5], #4
 8002b0c:	4798      	blx	r3
 8002b0e:	3601      	adds	r6, #1
 8002b10:	e7ee      	b.n	8002af0 <__libc_init_array+0xc>
 8002b12:	f855 3b04 	ldr.w	r3, [r5], #4
 8002b16:	4798      	blx	r3
 8002b18:	3601      	adds	r6, #1
 8002b1a:	e7f2      	b.n	8002b02 <__libc_init_array+0x1e>
 8002b1c:	08002b84 	.word	0x08002b84
 8002b20:	08002b84 	.word	0x08002b84
 8002b24:	08002b84 	.word	0x08002b84
 8002b28:	08002b88 	.word	0x08002b88

08002b2c <memset>:
 8002b2c:	4402      	add	r2, r0
 8002b2e:	4603      	mov	r3, r0
 8002b30:	4293      	cmp	r3, r2
 8002b32:	d100      	bne.n	8002b36 <memset+0xa>
 8002b34:	4770      	bx	lr
 8002b36:	f803 1b01 	strb.w	r1, [r3], #1
 8002b3a:	e7f9      	b.n	8002b30 <memset+0x4>

08002b3c <_init>:
 8002b3c:	b5f8      	push	{r3, r4, r5, r6, r7, lr}
 8002b3e:	bf00      	nop
 8002b40:	bcf8      	pop	{r3, r4, r5, r6, r7}
 8002b42:	bc08      	pop	{r3}
 8002b44:	469e      	mov	lr, r3
 8002b46:	4770      	bx	lr

08002b48 <_fini>:
 8002b48:	b5f8      	push	{r3, r4, r5, r6, r7, lr}
 8002b4a:	bf00      	nop
 8002b4c:	bcf8      	pop	{r3, r4, r5, r6, r7}
 8002b4e:	bc08      	pop	{r3}
 8002b50:	469e      	mov	lr, r3
 8002b52:	4770      	bx	lr
